	.file	"main.cpp"
 # GNU C++20 (Rev6, Built by MSYS2 project) version 12.2.0 (x86_64-w64-mingw32)
 #	compiled by GNU C version 12.2.0, GMP version 6.2.1, MPFR version 4.1.0-p13, MPC version 1.2.1, isl version isl-0.25-GMP

 # GGC heuristics: --param ggc-min-expand=100 --param ggc-min-heapsize=131072
 # options passed: -mtune=generic -march=x86-64 -g -O0 -std=c++20 -fstack-usage -fno-inline -fno-omit-frame-pointer
	.text
.Ltext0:
	.file 0 "C:/code/redjader/simulation" "src/main.cpp"
	.section	.text$__is_constant_evaluated,"x"
	.linkonce discard
	.globl	__is_constant_evaluated
	.def	__is_constant_evaluated;	.scl	2;	.type	32;	.endef
	.seh_proc	__is_constant_evaluated
__is_constant_evaluated:
.LFB404:
	.file 1 "C:/msys64/mingw64/include/c++/12.2.0/x86_64-w64-mingw32/bits/c++config.h"
	.loc 1 517 3
	pushq	%rbp	 #
	.seh_pushreg	%rbp
.LCFI0:
	movq	%rsp, %rbp	 #,
	.seh_setframe	%rbp, 0
.LCFI1:
	.seh_endprologue
 # C:/msys64/mingw64/include/c++/12.2.0/x86_64-w64-mingw32/bits/c++config.h:523:     return __builtin_is_constant_evaluated();
	.loc 1 523 44
	movl	$0, %eax	 #, _1
 # C:/msys64/mingw64/include/c++/12.2.0/x86_64-w64-mingw32/bits/c++config.h:527:   }
	.loc 1 527 3
	popq	%rbp	 #
.LCFI2:
	ret	
.LFE404:
	.seh_endproc
	.section	.text$_Z6printfPKcz,"x"
	.linkonce discard
	.globl	_Z6printfPKcz
	.def	_Z6printfPKcz;	.scl	2;	.type	32;	.endef
	.seh_proc	_Z6printfPKcz
_Z6printfPKcz:
.LFB5616:
	.file 2 "C:/msys64/mingw64/include/stdio.h"
	.loc 2 369 1
	pushq	%rbp	 #
	.seh_pushreg	%rbp
.LCFI3:
	pushq	%rbx	 #
	.seh_pushreg	%rbx
.LCFI4:
	subq	$56, %rsp	 #,
	.seh_stackalloc	56
.LCFI5:
	leaq	48(%rsp), %rbp	 #,
	.seh_setframe	%rbp, 48
.LCFI6:
	.seh_endprologue
	movq	%rcx, 32(%rbp)	 # __format, __format
	movq	%rdx, 40(%rbp)	 #,
	movq	%r8, 48(%rbp)	 #,
	movq	%r9, 56(%rbp)	 #,
 # C:/msys64/mingw64/include/stdio.h:371:   __builtin_va_list __local_argv; __builtin_va_start( __local_argv, __format );
	.loc 2 371 53
	leaq	40(%rbp), %rax	 #, tmp86
	movq	%rax, -16(%rbp)	 # tmp86, MEM[(char * *)&__local_argv]
 # C:/msys64/mingw64/include/stdio.h:372:   __retval = __mingw_vfprintf( stdout, __format, __local_argv );
	.loc 2 372 30
	movq	-16(%rbp), %rbx	 # __local_argv, __local_argv.24_1
	movl	$1, %ecx	 #,
	movq	__imp___acrt_iob_func(%rip), %rax	 #, tmp87
	call	*%rax	 # tmp87
.LVL0:
	movq	%rax, %rcx	 #, _2
	movq	32(%rbp), %rax	 # __format, tmp88
	movq	%rbx, %r8	 # __local_argv.24_1,
	movq	%rax, %rdx	 # tmp88,
	call	__mingw_vfprintf	 #
	movl	%eax, -4(%rbp)	 # tmp89, __retval
 # C:/msys64/mingw64/include/stdio.h:374:   return __retval;
	.loc 2 374 10
	movl	-4(%rbp), %eax	 # __retval, _11
 # C:/msys64/mingw64/include/stdio.h:375: }
	.loc 2 375 1
	addq	$56, %rsp	 #,
	popq	%rbx	 #
.LCFI7:
	popq	%rbp	 #
.LCFI8:
	ret	
.LFE5616:
	.seh_endproc
	.section	.text$_ZNSt9__cmp_cat8__unspecC1EPS0_,"x"
	.linkonce discard
	.align 2
	.globl	_ZNSt9__cmp_cat8__unspecC1EPS0_
	.def	_ZNSt9__cmp_cat8__unspecC1EPS0_;	.scl	2;	.type	32;	.endef
	.seh_proc	_ZNSt9__cmp_cat8__unspecC1EPS0_
_ZNSt9__cmp_cat8__unspecC1EPS0_:
.LFB5910:
	.file 3 "C:/msys64/mingw64/include/c++/12.2.0/compare"
	.loc 3 59 17
	pushq	%rbp	 #
	.seh_pushreg	%rbp
.LCFI9:
	movq	%rsp, %rbp	 #,
	.seh_setframe	%rbp, 0
.LCFI10:
	.seh_endprologue
	movq	%rcx, 16(%rbp)	 # this, this
	movq	%rdx, 24(%rbp)	 # D.102302, D.102302
 # C:/msys64/mingw64/include/c++/12.2.0/compare:59:       constexpr __unspec(__unspec*) noexcept { }
	.loc 3 59 48
	nop	
	popq	%rbp	 #
.LCFI11:
	ret	
.LFE5910:
	.seh_endproc
	.section	.text$_ZStltSt15strong_orderingNSt9__cmp_cat8__unspecE,"x"
	.linkonce discard
	.globl	_ZStltSt15strong_orderingNSt9__cmp_cat8__unspecE
	.def	_ZStltSt15strong_orderingNSt9__cmp_cat8__unspecE;	.scl	2;	.type	32;	.endef
	.seh_proc	_ZStltSt15strong_orderingNSt9__cmp_cat8__unspecE
_ZStltSt15strong_orderingNSt9__cmp_cat8__unspecE:
.LFB5949:
	.loc 3 294 5
	pushq	%rbp	 #
	.seh_pushreg	%rbp
.LCFI12:
	movq	%rsp, %rbp	 #,
	.seh_setframe	%rbp, 0
.LCFI13:
	.seh_endprologue
	movb	%cl, 16(%rbp)	 # __v, __v
 # C:/msys64/mingw64/include/c++/12.2.0/compare:295:     { return __v._M_value < 0; }
	.loc 3 295 18
	movzbl	16(%rbp), %eax	 # __v._M_value, _1
 # C:/msys64/mingw64/include/c++/12.2.0/compare:295:     { return __v._M_value < 0; }
	.loc 3 295 29
	shrb	$7, %al	 #, _3
 # C:/msys64/mingw64/include/c++/12.2.0/compare:295:     { return __v._M_value < 0; }
	.loc 3 295 32
	popq	%rbp	 #
.LCFI14:
	ret	
.LFE5949:
	.seh_endproc
	.section	.text$_ZStleSt15strong_orderingNSt9__cmp_cat8__unspecE,"x"
	.linkonce discard
	.globl	_ZStleSt15strong_orderingNSt9__cmp_cat8__unspecE
	.def	_ZStleSt15strong_orderingNSt9__cmp_cat8__unspecE;	.scl	2;	.type	32;	.endef
	.seh_proc	_ZStleSt15strong_orderingNSt9__cmp_cat8__unspecE
_ZStleSt15strong_orderingNSt9__cmp_cat8__unspecE:
.LFB5951:
	.loc 3 304 5
	pushq	%rbp	 #
	.seh_pushreg	%rbp
.LCFI15:
	movq	%rsp, %rbp	 #,
	.seh_setframe	%rbp, 0
.LCFI16:
	.seh_endprologue
	movb	%cl, 16(%rbp)	 # __v, __v
 # C:/msys64/mingw64/include/c++/12.2.0/compare:305:     { return __v._M_value <= 0; }
	.loc 3 305 18
	movzbl	16(%rbp), %eax	 # __v._M_value, _1
 # C:/msys64/mingw64/include/c++/12.2.0/compare:305:     { return __v._M_value <= 0; }
	.loc 3 305 30
	testb	%al, %al	 # _1
	setle	%al	 #, _3
 # C:/msys64/mingw64/include/c++/12.2.0/compare:305:     { return __v._M_value <= 0; }
	.loc 3 305 33
	popq	%rbp	 #
.LCFI17:
	ret	
.LFE5951:
	.seh_endproc
	.section	.text$_ZnwyPv,"x"
	.linkonce discard
	.globl	_ZnwyPv
	.def	_ZnwyPv;	.scl	2;	.type	32;	.endef
	.seh_proc	_ZnwyPv
_ZnwyPv:
.LFB6076:
	.file 4 "C:/msys64/mingw64/include/c++/12.2.0/new"
	.loc 4 175 1
	pushq	%rbp	 #
	.seh_pushreg	%rbp
.LCFI18:
	movq	%rsp, %rbp	 #,
	.seh_setframe	%rbp, 0
.LCFI19:
	.seh_endprologue
	movq	%rcx, 16(%rbp)	 # D.106237, D.106237
	movq	%rdx, 24(%rbp)	 # __p, __p
 # C:/msys64/mingw64/include/c++/12.2.0/new:175: { return __p; }
	.loc 4 175 10
	movq	24(%rbp), %rax	 # __p, _2
 # C:/msys64/mingw64/include/c++/12.2.0/new:175: { return __p; }
	.loc 4 175 15
	popq	%rbp	 #
.LCFI20:
	ret	
.LFE6076:
	.seh_endproc
	.section	.text$_ZNSt10_Hash_impl4hashEPKvyy,"x"
	.linkonce discard
	.globl	_ZNSt10_Hash_impl4hashEPKvyy
	.def	_ZNSt10_Hash_impl4hashEPKvyy;	.scl	2;	.type	32;	.endef
	.seh_proc	_ZNSt10_Hash_impl4hashEPKvyy
_ZNSt10_Hash_impl4hashEPKvyy:
.LFB7262:
	.file 5 "C:/msys64/mingw64/include/c++/12.2.0/bits/functional_hash.h"
	.loc 5 204 5
	pushq	%rbp	 #
	.seh_pushreg	%rbp
.LCFI21:
	movq	%rsp, %rbp	 #,
	.seh_setframe	%rbp, 0
.LCFI22:
	subq	$32, %rsp	 #,
	.seh_stackalloc	32
	.seh_endprologue
	movq	%rcx, 16(%rbp)	 # __ptr, __ptr
	movq	%rdx, 24(%rbp)	 # __clength, __clength
	movq	%r8, 32(%rbp)	 # __seed, __seed
 # C:/msys64/mingw64/include/c++/12.2.0/bits/functional_hash.h:206:     { return _Hash_bytes(__ptr, __clength, __seed); }
	.loc 5 206 25
	movq	32(%rbp), %rcx	 # __seed, tmp84
	movq	24(%rbp), %rdx	 # __clength, tmp85
	movq	16(%rbp), %rax	 # __ptr, tmp86
	movq	%rcx, %r8	 # tmp84,
	movq	%rax, %rcx	 # tmp86,
	call	_ZSt11_Hash_bytesPKvyy	 #
 # C:/msys64/mingw64/include/c++/12.2.0/bits/functional_hash.h:206:     { return _Hash_bytes(__ptr, __clength, __seed); }
	.loc 5 206 53
	addq	$32, %rsp	 #,
	popq	%rbp	 #
.LCFI23:
	ret	
.LFE7262:
	.seh_endproc
	.text
	.def	_ZL18__gthread_active_pv;	.scl	3;	.type	32;	.endef
	.seh_proc	_ZL18__gthread_active_pv
_ZL18__gthread_active_pv:
.LFB7436:
	.file 6 "C:/msys64/mingw64/include/c++/12.2.0/x86_64-w64-mingw32/bits/gthr-default.h"
	.loc 6 301 1
	pushq	%rbp	 #
	.seh_pushreg	%rbp
.LCFI24:
	movq	%rsp, %rbp	 #,
	.seh_setframe	%rbp, 0
.LCFI25:
	.seh_endprologue
 # C:/msys64/mingw64/include/c++/12.2.0/x86_64-w64-mingw32/bits/gthr-default.h:302:   return 1;
	.loc 6 302 10
	movl	$1, %eax	 #, _1
 # C:/msys64/mingw64/include/c++/12.2.0/x86_64-w64-mingw32/bits/gthr-default.h:303: }
	.loc 6 303 1
	popq	%rbp	 #
.LCFI26:
	ret	
.LFE7436:
	.seh_endproc
	.def	_ZL14__gthread_selfv;	.scl	3;	.type	32;	.endef
	.seh_proc	_ZL14__gthread_selfv
_ZL14__gthread_selfv:
.LFB7441:
	.loc 6 686 1
	pushq	%rbp	 #
	.seh_pushreg	%rbp
.LCFI27:
	movq	%rsp, %rbp	 #,
	.seh_setframe	%rbp, 0
.LCFI28:
	subq	$32, %rsp	 #,
	.seh_stackalloc	32
	.seh_endprologue
 # C:/msys64/mingw64/include/c++/12.2.0/x86_64-w64-mingw32/bits/gthr-default.h:687:   return __gthrw_(pthread_self) ();
	.loc 6 687 33
	call	pthread_self	 #
 # C:/msys64/mingw64/include/c++/12.2.0/x86_64-w64-mingw32/bits/gthr-default.h:688: }
	.loc 6 688 1
	addq	$32, %rsp	 #,
	popq	%rbp	 #
.LCFI29:
	ret	
.LFE7441:
	.seh_endproc
	.def	_ZL15__gthread_yieldv;	.scl	3;	.type	32;	.endef
	.seh_proc	_ZL15__gthread_yieldv
_ZL15__gthread_yieldv:
.LFB7442:
	.loc 6 692 1
	pushq	%rbp	 #
	.seh_pushreg	%rbp
.LCFI30:
	movq	%rsp, %rbp	 #,
	.seh_setframe	%rbp, 0
.LCFI31:
	subq	$32, %rsp	 #,
	.seh_stackalloc	32
	.seh_endprologue
 # C:/msys64/mingw64/include/c++/12.2.0/x86_64-w64-mingw32/bits/gthr-default.h:693:   return __gthrw_(sched_yield) ();
	.loc 6 693 32
	call	sched_yield	 #
 # C:/msys64/mingw64/include/c++/12.2.0/x86_64-w64-mingw32/bits/gthr-default.h:694: }
	.loc 6 694 1
	addq	$32, %rsp	 #,
	popq	%rbp	 #
.LCFI32:
	ret	
.LFE7442:
	.seh_endproc
	.def	_ZL29__gthread_mutex_init_functionPx;	.scl	3;	.type	32;	.endef
	.seh_proc	_ZL29__gthread_mutex_init_functionPx
_ZL29__gthread_mutex_init_functionPx:
.LFB7448:
	.loc 6 731 1
	pushq	%rbp	 #
	.seh_pushreg	%rbp
.LCFI33:
	movq	%rsp, %rbp	 #,
	.seh_setframe	%rbp, 0
.LCFI34:
	subq	$32, %rsp	 #,
	.seh_stackalloc	32
	.seh_endprologue
	movq	%rcx, 16(%rbp)	 # __mutex, __mutex
 # C:/msys64/mingw64/include/c++/12.2.0/x86_64-w64-mingw32/bits/gthr-default.h:732:   if (__gthread_active_p ())
	.loc 6 732 26
	call	_ZL18__gthread_active_pv	 #
	testl	%eax, %eax	 # _1
	setne	%al	 #, retval.160_5
 # C:/msys64/mingw64/include/c++/12.2.0/x86_64-w64-mingw32/bits/gthr-default.h:732:   if (__gthread_active_p ())
	.loc 6 732 3
	testb	%al, %al	 # retval.160_5
	je	.L22	 #,
 # C:/msys64/mingw64/include/c++/12.2.0/x86_64-w64-mingw32/bits/gthr-default.h:733:     __gthrw_(pthread_mutex_init) (__mutex, NULL);
	.loc 6 733 34
	movq	16(%rbp), %rax	 # __mutex, tmp84
	movl	$0, %edx	 #,
	movq	%rax, %rcx	 # tmp84,
	call	pthread_mutex_init	 #
.L22:
 # C:/msys64/mingw64/include/c++/12.2.0/x86_64-w64-mingw32/bits/gthr-default.h:734: }
	.loc 6 734 1
	nop	
	addq	$32, %rsp	 #,
	popq	%rbp	 #
.LCFI35:
	ret	
.LFE7448:
	.seh_endproc
	.def	_ZL23__gthread_mutex_destroyPx;	.scl	3;	.type	32;	.endef
	.seh_proc	_ZL23__gthread_mutex_destroyPx
_ZL23__gthread_mutex_destroyPx:
.LFB7449:
	.loc 6 738 1
	pushq	%rbp	 #
	.seh_pushreg	%rbp
.LCFI36:
	movq	%rsp, %rbp	 #,
	.seh_setframe	%rbp, 0
.LCFI37:
	subq	$32, %rsp	 #,
	.seh_stackalloc	32
	.seh_endprologue
	movq	%rcx, 16(%rbp)	 # __mutex, __mutex
 # C:/msys64/mingw64/include/c++/12.2.0/x86_64-w64-mingw32/bits/gthr-default.h:739:   if (__gthread_active_p ())
	.loc 6 739 26
	call	_ZL18__gthread_active_pv	 #
	testl	%eax, %eax	 # _1
	setne	%al	 #, retval.159_6
 # C:/msys64/mingw64/include/c++/12.2.0/x86_64-w64-mingw32/bits/gthr-default.h:739:   if (__gthread_active_p ())
	.loc 6 739 3
	testb	%al, %al	 # retval.159_6
	je	.L24	 #,
 # C:/msys64/mingw64/include/c++/12.2.0/x86_64-w64-mingw32/bits/gthr-default.h:740:     return __gthrw_(pthread_mutex_destroy) (__mutex);
	.loc 6 740 44
	movq	16(%rbp), %rax	 # __mutex, tmp86
	movq	%rax, %rcx	 # tmp86,
	call	pthread_mutex_destroy	 #
 # C:/msys64/mingw64/include/c++/12.2.0/x86_64-w64-mingw32/bits/gthr-default.h:740:     return __gthrw_(pthread_mutex_destroy) (__mutex);
	.loc 6 740 52
	jmp	.L25	 #
.L24:
 # C:/msys64/mingw64/include/c++/12.2.0/x86_64-w64-mingw32/bits/gthr-default.h:742:     return 0;
	.loc 6 742 12
	movl	$0, %eax	 #, _10
.L25:
 # C:/msys64/mingw64/include/c++/12.2.0/x86_64-w64-mingw32/bits/gthr-default.h:743: }
	.loc 6 743 1
	addq	$32, %rsp	 #,
	popq	%rbp	 #
.LCFI38:
	ret	
.LFE7449:
	.seh_endproc
	.def	_ZL20__gthread_mutex_lockPx;	.scl	3;	.type	32;	.endef
	.seh_proc	_ZL20__gthread_mutex_lockPx
_ZL20__gthread_mutex_lockPx:
.LFB7450:
	.loc 6 747 1
	pushq	%rbp	 #
	.seh_pushreg	%rbp
.LCFI39:
	movq	%rsp, %rbp	 #,
	.seh_setframe	%rbp, 0
.LCFI40:
	subq	$32, %rsp	 #,
	.seh_stackalloc	32
	.seh_endprologue
	movq	%rcx, 16(%rbp)	 # __mutex, __mutex
 # C:/msys64/mingw64/include/c++/12.2.0/x86_64-w64-mingw32/bits/gthr-default.h:748:   if (__gthread_active_p ())
	.loc 6 748 26
	call	_ZL18__gthread_active_pv	 #
	testl	%eax, %eax	 # _1
	setne	%al	 #, retval.196_6
 # C:/msys64/mingw64/include/c++/12.2.0/x86_64-w64-mingw32/bits/gthr-default.h:748:   if (__gthread_active_p ())
	.loc 6 748 3
	testb	%al, %al	 # retval.196_6
	je	.L27	 #,
 # C:/msys64/mingw64/include/c++/12.2.0/x86_64-w64-mingw32/bits/gthr-default.h:749:     return __gthrw_(pthread_mutex_lock) (__mutex);
	.loc 6 749 41
	movq	16(%rbp), %rax	 # __mutex, tmp86
	movq	%rax, %rcx	 # tmp86,
	call	pthread_mutex_lock	 #
 # C:/msys64/mingw64/include/c++/12.2.0/x86_64-w64-mingw32/bits/gthr-default.h:749:     return __gthrw_(pthread_mutex_lock) (__mutex);
	.loc 6 749 49
	jmp	.L28	 #
.L27:
 # C:/msys64/mingw64/include/c++/12.2.0/x86_64-w64-mingw32/bits/gthr-default.h:751:     return 0;
	.loc 6 751 12
	movl	$0, %eax	 #, _10
.L28:
 # C:/msys64/mingw64/include/c++/12.2.0/x86_64-w64-mingw32/bits/gthr-default.h:752: }
	.loc 6 752 1
	addq	$32, %rsp	 #,
	popq	%rbp	 #
.LCFI41:
	ret	
.LFE7450:
	.seh_endproc
	.def	_ZL22__gthread_mutex_unlockPx;	.scl	3;	.type	32;	.endef
	.seh_proc	_ZL22__gthread_mutex_unlockPx
_ZL22__gthread_mutex_unlockPx:
.LFB7453:
	.loc 6 777 1
	pushq	%rbp	 #
	.seh_pushreg	%rbp
.LCFI42:
	movq	%rsp, %rbp	 #,
	.seh_setframe	%rbp, 0
.LCFI43:
	subq	$32, %rsp	 #,
	.seh_stackalloc	32
	.seh_endprologue
	movq	%rcx, 16(%rbp)	 # __mutex, __mutex
 # C:/msys64/mingw64/include/c++/12.2.0/x86_64-w64-mingw32/bits/gthr-default.h:778:   if (__gthread_active_p ())
	.loc 6 778 26
	call	_ZL18__gthread_active_pv	 #
	testl	%eax, %eax	 # _1
	setne	%al	 #, retval.199_6
 # C:/msys64/mingw64/include/c++/12.2.0/x86_64-w64-mingw32/bits/gthr-default.h:778:   if (__gthread_active_p ())
	.loc 6 778 3
	testb	%al, %al	 # retval.199_6
	je	.L30	 #,
 # C:/msys64/mingw64/include/c++/12.2.0/x86_64-w64-mingw32/bits/gthr-default.h:779:     return __gthrw_(pthread_mutex_unlock) (__mutex);
	.loc 6 779 43
	movq	16(%rbp), %rax	 # __mutex, tmp86
	movq	%rax, %rcx	 # tmp86,
	call	pthread_mutex_unlock	 #
 # C:/msys64/mingw64/include/c++/12.2.0/x86_64-w64-mingw32/bits/gthr-default.h:779:     return __gthrw_(pthread_mutex_unlock) (__mutex);
	.loc 6 779 51
	jmp	.L31	 #
.L30:
 # C:/msys64/mingw64/include/c++/12.2.0/x86_64-w64-mingw32/bits/gthr-default.h:781:     return 0;
	.loc 6 781 12
	movl	$0, %eax	 #, _10
.L31:
 # C:/msys64/mingw64/include/c++/12.2.0/x86_64-w64-mingw32/bits/gthr-default.h:782: }
	.loc 6 782 1
	addq	$32, %rsp	 #,
	popq	%rbp	 #
.LCFI44:
	ret	
.LFE7453:
	.seh_endproc
	.def	_ZL24__gthread_cond_broadcastPx;	.scl	3;	.type	32;	.endef
	.seh_proc	_ZL24__gthread_cond_broadcastPx
_ZL24__gthread_cond_broadcastPx:
.LFB7460:
	.loc 6 852 1
	pushq	%rbp	 #
	.seh_pushreg	%rbp
.LCFI45:
	movq	%rsp, %rbp	 #,
	.seh_setframe	%rbp, 0
.LCFI46:
	subq	$32, %rsp	 #,
	.seh_stackalloc	32
	.seh_endprologue
	movq	%rcx, 16(%rbp)	 # __cond, __cond
 # C:/msys64/mingw64/include/c++/12.2.0/x86_64-w64-mingw32/bits/gthr-default.h:853:   return __gthrw_(pthread_cond_broadcast) (__cond);
	.loc 6 853 43
	movq	16(%rbp), %rax	 # __cond, tmp84
	movq	%rax, %rcx	 # tmp84,
	call	pthread_cond_broadcast	 #
 # C:/msys64/mingw64/include/c++/12.2.0/x86_64-w64-mingw32/bits/gthr-default.h:854: }
	.loc 6 854 1
	addq	$32, %rsp	 #,
	popq	%rbp	 #
.LCFI47:
	ret	
.LFE7460:
	.seh_endproc
	.def	_ZL21__gthread_cond_signalPx;	.scl	3;	.type	32;	.endef
	.seh_proc	_ZL21__gthread_cond_signalPx
_ZL21__gthread_cond_signalPx:
.LFB7461:
	.loc 6 858 1
	pushq	%rbp	 #
	.seh_pushreg	%rbp
.LCFI48:
	movq	%rsp, %rbp	 #,
	.seh_setframe	%rbp, 0
.LCFI49:
	subq	$32, %rsp	 #,
	.seh_stackalloc	32
	.seh_endprologue
	movq	%rcx, 16(%rbp)	 # __cond, __cond
 # C:/msys64/mingw64/include/c++/12.2.0/x86_64-w64-mingw32/bits/gthr-default.h:859:   return __gthrw_(pthread_cond_signal) (__cond);
	.loc 6 859 40
	movq	16(%rbp), %rax	 # __cond, tmp84
	movq	%rax, %rcx	 # tmp84,
	call	pthread_cond_signal	 #
 # C:/msys64/mingw64/include/c++/12.2.0/x86_64-w64-mingw32/bits/gthr-default.h:860: }
	.loc 6 860 1
	addq	$32, %rsp	 #,
	popq	%rbp	 #
.LCFI50:
	ret	
.LFE7461:
	.seh_endproc
	.def	_ZL19__gthread_cond_waitPxS_;	.scl	3;	.type	32;	.endef
	.seh_proc	_ZL19__gthread_cond_waitPxS_
_ZL19__gthread_cond_waitPxS_:
.LFB7462:
	.loc 6 864 1
	pushq	%rbp	 #
	.seh_pushreg	%rbp
.LCFI51:
	movq	%rsp, %rbp	 #,
	.seh_setframe	%rbp, 0
.LCFI52:
	subq	$32, %rsp	 #,
	.seh_stackalloc	32
	.seh_endprologue
	movq	%rcx, 16(%rbp)	 # __cond, __cond
	movq	%rdx, 24(%rbp)	 # __mutex, __mutex
 # C:/msys64/mingw64/include/c++/12.2.0/x86_64-w64-mingw32/bits/gthr-default.h:865:   return __gthrw_(pthread_cond_wait) (__cond, __mutex);
	.loc 6 865 38
	movq	24(%rbp), %rdx	 # __mutex, tmp84
	movq	16(%rbp), %rax	 # __cond, tmp85
	movq	%rax, %rcx	 # tmp85,
	call	pthread_cond_wait	 #
 # C:/msys64/mingw64/include/c++/12.2.0/x86_64-w64-mingw32/bits/gthr-default.h:866: }
	.loc 6 866 1
	addq	$32, %rsp	 #,
	popq	%rbp	 #
.LCFI53:
	ret	
.LFE7462:
	.seh_endproc
	.def	_ZL22__gthread_cond_destroyPx;	.scl	3;	.type	32;	.endef
	.seh_proc	_ZL22__gthread_cond_destroyPx
_ZL22__gthread_cond_destroyPx:
.LFB7465:
	.loc 6 884 1
	pushq	%rbp	 #
	.seh_pushreg	%rbp
.LCFI54:
	movq	%rsp, %rbp	 #,
	.seh_setframe	%rbp, 0
.LCFI55:
	subq	$32, %rsp	 #,
	.seh_stackalloc	32
	.seh_endprologue
	movq	%rcx, 16(%rbp)	 # __cond, __cond
 # C:/msys64/mingw64/include/c++/12.2.0/x86_64-w64-mingw32/bits/gthr-default.h:885:   return __gthrw_(pthread_cond_destroy) (__cond);
	.loc 6 885 41
	movq	16(%rbp), %rax	 # __cond, tmp84
	movq	%rax, %rcx	 # tmp84,
	call	pthread_cond_destroy	 #
 # C:/msys64/mingw64/include/c++/12.2.0/x86_64-w64-mingw32/bits/gthr-default.h:886: }
	.loc 6 886 1
	addq	$32, %rsp	 #,
	popq	%rbp	 #
.LCFI56:
	ret	
.LFE7465:
	.seh_endproc
	.section .rdata,"dr"
	.align 4
_ZN9__gnu_cxxL21__default_lock_policyE:
	.long	2
	.section	.text$_ZNSt12__mutex_baseC2Ev,"x"
	.linkonce discard
	.align 2
	.globl	_ZNSt12__mutex_baseC2Ev
	.def	_ZNSt12__mutex_baseC2Ev;	.scl	2;	.type	32;	.endef
	.seh_proc	_ZNSt12__mutex_baseC2Ev
_ZNSt12__mutex_baseC2Ev:
.LFB8921:
	.file 7 "C:/msys64/mingw64/include/c++/12.2.0/bits/std_mutex.h"
	.loc 7 69 5
	pushq	%rbp	 #
	.seh_pushreg	%rbp
.LCFI57:
	movq	%rsp, %rbp	 #,
	.seh_setframe	%rbp, 0
.LCFI58:
	subq	$32, %rsp	 #,
	.seh_stackalloc	32
	.seh_endprologue
	movq	%rcx, 16(%rbp)	 # this, this
.LBB85:
 # C:/msys64/mingw64/include/c++/12.2.0/bits/std_mutex.h:72:       __GTHREAD_MUTEX_INIT_FUNCTION(&_M_mutex);
	.loc 7 72 36
	movq	16(%rbp), %rax	 # this, _1
	movq	%rax, %rcx	 # _1,
	call	_ZL29__gthread_mutex_init_functionPx	 #
.LBE85:
 # C:/msys64/mingw64/include/c++/12.2.0/bits/std_mutex.h:73:     }
	.loc 7 73 5
	nop	
	addq	$32, %rsp	 #,
	popq	%rbp	 #
.LCFI59:
	ret	
.LFE8921:
	.def	__gxx_personality_seh0;	.scl	2;	.type	32;	.endef
	.seh_handler	__gxx_personality_seh0, @unwind, @except
	.seh_handlerdata
.LLSDA8921:
	.byte	0xff
	.byte	0xff
	.byte	0x1
	.uleb128 .LLSDACSE8921-.LLSDACSB8921
.LLSDACSB8921:
.LLSDACSE8921:
	.section	.text$_ZNSt12__mutex_baseC2Ev,"x"
	.linkonce discard
	.seh_endproc
	.section	.text$_ZNSt12__mutex_baseD2Ev,"x"
	.linkonce discard
	.align 2
	.globl	_ZNSt12__mutex_baseD2Ev
	.def	_ZNSt12__mutex_baseD2Ev;	.scl	2;	.type	32;	.endef
	.seh_proc	_ZNSt12__mutex_baseD2Ev
_ZNSt12__mutex_baseD2Ev:
.LFB8924:
	.loc 7 75 5
	pushq	%rbp	 #
	.seh_pushreg	%rbp
.LCFI60:
	movq	%rsp, %rbp	 #,
	.seh_setframe	%rbp, 0
.LCFI61:
	subq	$32, %rsp	 #,
	.seh_stackalloc	32
	.seh_endprologue
	movq	%rcx, 16(%rbp)	 # this, this
.LBB86:
 # C:/msys64/mingw64/include/c++/12.2.0/bits/std_mutex.h:75:     ~__mutex_base() noexcept { __gthread_mutex_destroy(&_M_mutex); }
	.loc 7 75 55
	movq	16(%rbp), %rax	 # this, _1
	movq	%rax, %rcx	 # _1,
	call	_ZL23__gthread_mutex_destroyPx	 #
.LBE86:
 # C:/msys64/mingw64/include/c++/12.2.0/bits/std_mutex.h:75:     ~__mutex_base() noexcept { __gthread_mutex_destroy(&_M_mutex); }
	.loc 7 75 68
	nop	
	addq	$32, %rsp	 #,
	popq	%rbp	 #
.LCFI62:
	ret	
.LFE8924:
	.seh_handler	__gxx_personality_seh0, @unwind, @except
	.seh_handlerdata
.LLSDA8924:
	.byte	0xff
	.byte	0xff
	.byte	0x1
	.uleb128 .LLSDACSE8924-.LLSDACSB8924
.LLSDACSB8924:
.LLSDACSE8924:
	.section	.text$_ZNSt12__mutex_baseD2Ev,"x"
	.linkonce discard
	.seh_endproc
	.section	.text$_ZNSt5mutex4lockEv,"x"
	.linkonce discard
	.align 2
	.globl	_ZNSt5mutex4lockEv
	.def	_ZNSt5mutex4lockEv;	.scl	2;	.type	32;	.endef
	.seh_proc	_ZNSt5mutex4lockEv
_ZNSt5mutex4lockEv:
.LFB8926:
	.loc 7 98 5
	pushq	%rbp	 #
	.seh_pushreg	%rbp
.LCFI63:
	movq	%rsp, %rbp	 #,
	.seh_setframe	%rbp, 0
.LCFI64:
	subq	$48, %rsp	 #,
	.seh_stackalloc	48
	.seh_endprologue
	movq	%rcx, 16(%rbp)	 # this, this
 # C:/msys64/mingw64/include/c++/12.2.0/bits/std_mutex.h:100:       int __e = __gthread_mutex_lock(&_M_mutex);
	.loc 7 100 37
	movq	16(%rbp), %rax	 # this, _1
	movq	%rax, %rcx	 # _1,
	call	_ZL20__gthread_mutex_lockPx	 #
	movl	%eax, -4(%rbp)	 # _5, __e
 # C:/msys64/mingw64/include/c++/12.2.0/bits/std_mutex.h:103:       if (__e)
	.loc 7 103 7
	cmpl	$0, -4(%rbp)	 #, __e
	je	.L44	 #,
 # C:/msys64/mingw64/include/c++/12.2.0/bits/std_mutex.h:104: 	__throw_system_error(__e);
	.loc 7 104 22
	movl	-4(%rbp), %eax	 # __e, tmp84
	movl	%eax, %ecx	 # tmp84,
	call	_ZSt20__throw_system_errori	 #
.L44:
 # C:/msys64/mingw64/include/c++/12.2.0/bits/std_mutex.h:105:     }
	.loc 7 105 5
	nop	
	addq	$48, %rsp	 #,
	popq	%rbp	 #
.LCFI65:
	ret	
.LFE8926:
	.seh_endproc
	.section	.text$_ZNSt5mutex6unlockEv,"x"
	.linkonce discard
	.align 2
	.globl	_ZNSt5mutex6unlockEv
	.def	_ZNSt5mutex6unlockEv;	.scl	2;	.type	32;	.endef
	.seh_proc	_ZNSt5mutex6unlockEv
_ZNSt5mutex6unlockEv:
.LFB8928:
	.loc 7 115 5
	pushq	%rbp	 #
	.seh_pushreg	%rbp
.LCFI66:
	movq	%rsp, %rbp	 #,
	.seh_setframe	%rbp, 0
.LCFI67:
	subq	$32, %rsp	 #,
	.seh_stackalloc	32
	.seh_endprologue
	movq	%rcx, 16(%rbp)	 # this, this
 # C:/msys64/mingw64/include/c++/12.2.0/bits/std_mutex.h:118:       __gthread_mutex_unlock(&_M_mutex);
	.loc 7 118 29
	movq	16(%rbp), %rax	 # this, _1
	movq	%rax, %rcx	 # _1,
	call	_ZL22__gthread_mutex_unlockPx	 #
 # C:/msys64/mingw64/include/c++/12.2.0/bits/std_mutex.h:119:     }
	.loc 7 119 5
	nop	
	addq	$32, %rsp	 #,
	popq	%rbp	 #
.LCFI68:
	ret	
.LFE8928:
	.seh_endproc
	.section	.text$_ZNSt5mutex13native_handleEv,"x"
	.linkonce discard
	.align 2
	.globl	_ZNSt5mutex13native_handleEv
	.def	_ZNSt5mutex13native_handleEv;	.scl	2;	.type	32;	.endef
	.seh_proc	_ZNSt5mutex13native_handleEv
_ZNSt5mutex13native_handleEv:
.LFB8929:
	.loc 7 122 5
	pushq	%rbp	 #
	.seh_pushreg	%rbp
.LCFI69:
	movq	%rsp, %rbp	 #,
	.seh_setframe	%rbp, 0
.LCFI70:
	.seh_endprologue
	movq	%rcx, 16(%rbp)	 # this, this
 # C:/msys64/mingw64/include/c++/12.2.0/bits/std_mutex.h:123:     { return &_M_mutex; }
	.loc 7 123 15
	movq	16(%rbp), %rax	 # this, _2
 # C:/msys64/mingw64/include/c++/12.2.0/bits/std_mutex.h:123:     { return &_M_mutex; }
	.loc 7 123 25
	popq	%rbp	 #
.LCFI71:
	ret	
.LFE8929:
	.seh_endproc
	.section	.text$_ZNSt9__condvarC1Ev,"x"
	.linkonce discard
	.align 2
	.globl	_ZNSt9__condvarC1Ev
	.def	_ZNSt9__condvarC1Ev;	.scl	2;	.type	32;	.endef
	.seh_proc	_ZNSt9__condvarC1Ev
_ZNSt9__condvarC1Ev:
.LFB8932:
	.loc 7 132 5
	pushq	%rbp	 #
	.seh_pushreg	%rbp
.LCFI72:
	movq	%rsp, %rbp	 #,
	.seh_setframe	%rbp, 0
.LCFI73:
	.seh_endprologue
	movq	%rcx, 16(%rbp)	 # this, this
.LBB87:
 # C:/msys64/mingw64/include/c++/12.2.0/bits/std_mutex.h:133:     {
	.loc 7 133 5
	movq	16(%rbp), %rax	 # this, tmp82
	movq	$-1, (%rax)	 #, this_2(D)->_M_cond
.LBE87:
 # C:/msys64/mingw64/include/c++/12.2.0/bits/std_mutex.h:137:     }
	.loc 7 137 5
	nop	
	popq	%rbp	 #
.LCFI74:
	ret	
.LFE8932:
	.seh_endproc
	.section	.text$_ZNSt9__condvarD1Ev,"x"
	.linkonce discard
	.align 2
	.globl	_ZNSt9__condvarD1Ev
	.def	_ZNSt9__condvarD1Ev;	.scl	2;	.type	32;	.endef
	.seh_proc	_ZNSt9__condvarD1Ev
_ZNSt9__condvarD1Ev:
.LFB8935:
	.loc 7 139 5
	pushq	%rbp	 #
	.seh_pushreg	%rbp
.LCFI75:
	movq	%rsp, %rbp	 #,
	.seh_setframe	%rbp, 0
.LCFI76:
	subq	$48, %rsp	 #,
	.seh_stackalloc	48
	.seh_endprologue
	movq	%rcx, 16(%rbp)	 # this, this
.LBB88:
.LBB89:
 # C:/msys64/mingw64/include/c++/12.2.0/bits/std_mutex.h:141:       int __e __attribute__((__unused__)) = __gthread_cond_destroy(&_M_cond);
	.loc 7 141 67
	movq	16(%rbp), %rax	 # this, _1
	movq	%rax, %rcx	 # _1,
	call	_ZL22__gthread_cond_destroyPx	 #
	movl	%eax, -4(%rbp)	 # _7, __e
 # C:/msys64/mingw64/include/c++/12.2.0/bits/std_mutex.h:142:       __glibcxx_assert(__e != EBUSY); // threads are still blocked
	.loc 7 142 7
	call	__is_constant_evaluated	 #
	testb	%al, %al	 # _2
	je	.L50	 #,
 # C:/msys64/mingw64/include/c++/12.2.0/bits/std_mutex.h:142:       __glibcxx_assert(__e != EBUSY); // threads are still blocked
	.loc 7 142 7 is_stmt 0 discriminator 1
	cmpl	$16, -4(%rbp)	 #, __e
	jne	.L50	 #,
 # C:/msys64/mingw64/include/c++/12.2.0/bits/std_mutex.h:142:       __glibcxx_assert(__e != EBUSY); // threads are still blocked
	.loc 7 142 7 discriminator 3
	movl	$1, %eax	 #, iftmp.158_3
	jmp	.L51	 #
.L50:
 # C:/msys64/mingw64/include/c++/12.2.0/bits/std_mutex.h:142:       __glibcxx_assert(__e != EBUSY); // threads are still blocked
	.loc 7 142 7 discriminator 4
	movl	$0, %eax	 #, iftmp.158_3
.L51:
 # C:/msys64/mingw64/include/c++/12.2.0/bits/std_mutex.h:142:       __glibcxx_assert(__e != EBUSY); // threads are still blocked
	.loc 7 142 7 discriminator 6
	testb	%al, %al	 # iftmp.158_3
.LBE89:
.LBE88:
 # C:/msys64/mingw64/include/c++/12.2.0/bits/std_mutex.h:143:     }
	.loc 7 143 5 is_stmt 1 discriminator 6
	nop	
	addq	$48, %rsp	 #,
	popq	%rbp	 #
.LCFI77:
	ret	
.LFE8935:
	.seh_handler	__gxx_personality_seh0, @unwind, @except
	.seh_handlerdata
.LLSDA8935:
	.byte	0xff
	.byte	0xff
	.byte	0x1
	.uleb128 .LLSDACSE8935-.LLSDACSB8935
.LLSDACSB8935:
.LLSDACSE8935:
	.section	.text$_ZNSt9__condvarD1Ev,"x"
	.linkonce discard
	.seh_endproc
	.section	.text$_ZNSt9__condvar4waitERSt5mutex,"x"
	.linkonce discard
	.align 2
	.globl	_ZNSt9__condvar4waitERSt5mutex
	.def	_ZNSt9__condvar4waitERSt5mutex;	.scl	2;	.type	32;	.endef
	.seh_proc	_ZNSt9__condvar4waitERSt5mutex
_ZNSt9__condvar4waitERSt5mutex:
.LFB8937:
	.loc 7 152 5
	pushq	%rbp	 #
	.seh_pushreg	%rbp
.LCFI78:
	movq	%rsp, %rbp	 #,
	.seh_setframe	%rbp, 0
.LCFI79:
	subq	$48, %rsp	 #,
	.seh_stackalloc	48
	.seh_endprologue
	movq	%rcx, 16(%rbp)	 # this, this
	movq	%rdx, 24(%rbp)	 # __m, __m
 # C:/msys64/mingw64/include/c++/12.2.0/bits/std_mutex.h:155: 	= __gthread_cond_wait(&_M_cond, __m.native_handle());
	.loc 7 155 23
	movq	24(%rbp), %rax	 # __m, tmp87
	movq	%rax, %rcx	 # tmp87,
	call	_ZNSt5mutex13native_handleEv	 #
	movq	%rax, %rdx	 #, _1
	movq	16(%rbp), %rax	 # this, _2
	movq	%rax, %rcx	 # _2,
	call	_ZL19__gthread_cond_waitPxS_	 #
	movl	%eax, -4(%rbp)	 # _10, __e
 # C:/msys64/mingw64/include/c++/12.2.0/bits/std_mutex.h:156:       __glibcxx_assert(__e == 0);
	.loc 7 156 7
	call	__is_constant_evaluated	 #
	testb	%al, %al	 # _3
	je	.L54	 #,
 # C:/msys64/mingw64/include/c++/12.2.0/bits/std_mutex.h:156:       __glibcxx_assert(__e == 0);
	.loc 7 156 7 is_stmt 0 discriminator 1
	cmpl	$0, -4(%rbp)	 #, __e
	je	.L54	 #,
 # C:/msys64/mingw64/include/c++/12.2.0/bits/std_mutex.h:156:       __glibcxx_assert(__e == 0);
	.loc 7 156 7 discriminator 3
	movl	$1, %eax	 #, iftmp.198_4
	jmp	.L55	 #
.L54:
 # C:/msys64/mingw64/include/c++/12.2.0/bits/std_mutex.h:156:       __glibcxx_assert(__e == 0);
	.loc 7 156 7 discriminator 4
	movl	$0, %eax	 #, iftmp.198_4
.L55:
 # C:/msys64/mingw64/include/c++/12.2.0/bits/std_mutex.h:156:       __glibcxx_assert(__e == 0);
	.loc 7 156 7 discriminator 6
	testb	%al, %al	 # iftmp.198_4
 # C:/msys64/mingw64/include/c++/12.2.0/bits/std_mutex.h:157:     }
	.loc 7 157 5 is_stmt 1 discriminator 6
	nop	
	addq	$48, %rsp	 #,
	popq	%rbp	 #
.LCFI80:
	ret	
.LFE8937:
	.seh_endproc
	.section	.text$_ZNSt9__condvar10notify_oneEv,"x"
	.linkonce discard
	.align 2
	.globl	_ZNSt9__condvar10notify_oneEv
	.def	_ZNSt9__condvar10notify_oneEv;	.scl	2;	.type	32;	.endef
	.seh_proc	_ZNSt9__condvar10notify_oneEv
_ZNSt9__condvar10notify_oneEv:
.LFB8939:
	.loc 7 175 5
	pushq	%rbp	 #
	.seh_pushreg	%rbp
.LCFI81:
	movq	%rsp, %rbp	 #,
	.seh_setframe	%rbp, 0
.LCFI82:
	subq	$48, %rsp	 #,
	.seh_stackalloc	48
	.seh_endprologue
	movq	%rcx, 16(%rbp)	 # this, this
 # C:/msys64/mingw64/include/c++/12.2.0/bits/std_mutex.h:177:       int __e __attribute__((__unused__)) = __gthread_cond_signal(&_M_cond);
	.loc 7 177 66
	movq	16(%rbp), %rax	 # this, _1
	movq	%rax, %rcx	 # _1,
	call	_ZL21__gthread_cond_signalPx	 #
	movl	%eax, -4(%rbp)	 # _7, __e
 # C:/msys64/mingw64/include/c++/12.2.0/bits/std_mutex.h:178:       __glibcxx_assert(__e == 0);
	.loc 7 178 7
	call	__is_constant_evaluated	 #
	testb	%al, %al	 # _2
	je	.L58	 #,
 # C:/msys64/mingw64/include/c++/12.2.0/bits/std_mutex.h:178:       __glibcxx_assert(__e == 0);
	.loc 7 178 7 is_stmt 0 discriminator 1
	cmpl	$0, -4(%rbp)	 #, __e
	je	.L58	 #,
 # C:/msys64/mingw64/include/c++/12.2.0/bits/std_mutex.h:178:       __glibcxx_assert(__e == 0);
	.loc 7 178 7 discriminator 3
	movl	$1, %eax	 #, iftmp.168_3
	jmp	.L59	 #
.L58:
 # C:/msys64/mingw64/include/c++/12.2.0/bits/std_mutex.h:178:       __glibcxx_assert(__e == 0);
	.loc 7 178 7 discriminator 4
	movl	$0, %eax	 #, iftmp.168_3
.L59:
 # C:/msys64/mingw64/include/c++/12.2.0/bits/std_mutex.h:178:       __glibcxx_assert(__e == 0);
	.loc 7 178 7 discriminator 6
	testb	%al, %al	 # iftmp.168_3
 # C:/msys64/mingw64/include/c++/12.2.0/bits/std_mutex.h:179:     }
	.loc 7 179 5 is_stmt 1 discriminator 6
	nop	
	addq	$48, %rsp	 #,
	popq	%rbp	 #
.LCFI83:
	ret	
.LFE8939:
	.seh_handler	__gxx_personality_seh0, @unwind, @except
	.seh_handlerdata
.LLSDA8939:
	.byte	0xff
	.byte	0xff
	.byte	0x1
	.uleb128 .LLSDACSE8939-.LLSDACSB8939
.LLSDACSB8939:
.LLSDACSE8939:
	.section	.text$_ZNSt9__condvar10notify_oneEv,"x"
	.linkonce discard
	.seh_endproc
	.section	.text$_ZNSt9__condvar10notify_allEv,"x"
	.linkonce discard
	.align 2
	.globl	_ZNSt9__condvar10notify_allEv
	.def	_ZNSt9__condvar10notify_allEv;	.scl	2;	.type	32;	.endef
	.seh_proc	_ZNSt9__condvar10notify_allEv
_ZNSt9__condvar10notify_allEv:
.LFB8940:
	.loc 7 182 5
	pushq	%rbp	 #
	.seh_pushreg	%rbp
.LCFI84:
	movq	%rsp, %rbp	 #,
	.seh_setframe	%rbp, 0
.LCFI85:
	subq	$48, %rsp	 #,
	.seh_stackalloc	48
	.seh_endprologue
	movq	%rcx, 16(%rbp)	 # this, this
 # C:/msys64/mingw64/include/c++/12.2.0/bits/std_mutex.h:184:       int __e __attribute__((__unused__)) = __gthread_cond_broadcast(&_M_cond);
	.loc 7 184 69
	movq	16(%rbp), %rax	 # this, _1
	movq	%rax, %rcx	 # _1,
	call	_ZL24__gthread_cond_broadcastPx	 #
	movl	%eax, -4(%rbp)	 # _7, __e
 # C:/msys64/mingw64/include/c++/12.2.0/bits/std_mutex.h:185:       __glibcxx_assert(__e == 0);
	.loc 7 185 7
	call	__is_constant_evaluated	 #
	testb	%al, %al	 # _2
	je	.L62	 #,
 # C:/msys64/mingw64/include/c++/12.2.0/bits/std_mutex.h:185:       __glibcxx_assert(__e == 0);
	.loc 7 185 7 is_stmt 0 discriminator 1
	cmpl	$0, -4(%rbp)	 #, __e
	je	.L62	 #,
 # C:/msys64/mingw64/include/c++/12.2.0/bits/std_mutex.h:185:       __glibcxx_assert(__e == 0);
	.loc 7 185 7 discriminator 3
	movl	$1, %eax	 #, iftmp.166_3
	jmp	.L63	 #
.L62:
 # C:/msys64/mingw64/include/c++/12.2.0/bits/std_mutex.h:185:       __glibcxx_assert(__e == 0);
	.loc 7 185 7 discriminator 4
	movl	$0, %eax	 #, iftmp.166_3
.L63:
 # C:/msys64/mingw64/include/c++/12.2.0/bits/std_mutex.h:185:       __glibcxx_assert(__e == 0);
	.loc 7 185 7 discriminator 6
	testb	%al, %al	 # iftmp.166_3
 # C:/msys64/mingw64/include/c++/12.2.0/bits/std_mutex.h:186:     }
	.loc 7 186 5 is_stmt 1 discriminator 6
	nop	
	addq	$48, %rsp	 #,
	popq	%rbp	 #
.LCFI86:
	ret	
.LFE8940:
	.seh_handler	__gxx_personality_seh0, @unwind, @except
	.seh_handlerdata
.LLSDA8940:
	.byte	0xff
	.byte	0xff
	.byte	0x1
	.uleb128 .LLSDACSE8940-.LLSDACSB8940
.LLSDACSB8940:
.LLSDACSE8940:
	.section	.text$_ZNSt9__condvar10notify_allEv,"x"
	.linkonce discard
	.seh_endproc
	.section .rdata,"dr"
	.align 8
_ZNSt8__detailL25__platform_wait_alignmentE:
	.quad	8
	.section	.text$_ZNSt8__detail14__thread_yieldEv,"x"
	.linkonce discard
	.globl	_ZNSt8__detail14__thread_yieldEv
	.def	_ZNSt8__detail14__thread_yieldEv;	.scl	2;	.type	32;	.endef
	.seh_proc	_ZNSt8__detail14__thread_yieldEv
_ZNSt8__detail14__thread_yieldEv:
.LFB8944:
	.file 8 "C:/msys64/mingw64/include/c++/12.2.0/bits/atomic_wait.h"
	.loc 8 129 5
	pushq	%rbp	 #
	.seh_pushreg	%rbp
.LCFI87:
	movq	%rsp, %rbp	 #,
	.seh_setframe	%rbp, 0
.LCFI88:
	subq	$32, %rsp	 #,
	.seh_stackalloc	32
	.seh_endprologue
 # C:/msys64/mingw64/include/c++/12.2.0/bits/atomic_wait.h:131:      __gthread_yield();
	.loc 8 131 21
	call	_ZL15__gthread_yieldv	 #
 # C:/msys64/mingw64/include/c++/12.2.0/bits/atomic_wait.h:133:     }
	.loc 8 133 5
	nop	
	addq	$32, %rsp	 #,
	popq	%rbp	 #
.LCFI89:
	ret	
.LFE8944:
	.seh_handler	__gxx_personality_seh0, @unwind, @except
	.seh_handlerdata
.LLSDA8944:
	.byte	0xff
	.byte	0xff
	.byte	0x1
	.uleb128 .LLSDACSE8944-.LLSDACSB8944
.LLSDACSB8944:
.LLSDACSE8944:
	.section	.text$_ZNSt8__detail14__thread_yieldEv,"x"
	.linkonce discard
	.seh_endproc
	.section	.text$_ZNSt8__detail14__thread_relaxEv,"x"
	.linkonce discard
	.globl	_ZNSt8__detail14__thread_relaxEv
	.def	_ZNSt8__detail14__thread_relaxEv;	.scl	2;	.type	32;	.endef
	.seh_proc	_ZNSt8__detail14__thread_relaxEv
_ZNSt8__detail14__thread_relaxEv:
.LFB8945:
	.loc 8 137 5
	pushq	%rbp	 #
	.seh_pushreg	%rbp
.LCFI90:
	movq	%rsp, %rbp	 #,
	.seh_setframe	%rbp, 0
.LCFI91:
	.seh_endprologue
 # C:/msys64/mingw64/include/c++/12.2.0/bits/atomic_wait.h:139:       __builtin_ia32_pause();
	.loc 8 139 27
	rep nop
 # C:/msys64/mingw64/include/c++/12.2.0/bits/atomic_wait.h:143:     }
	.loc 8 143 5
	nop	
	popq	%rbp	 #
.LCFI92:
	ret	
.LFE8945:
	.seh_endproc
	.section .rdata,"dr"
	.align 4
_ZNSt8__detailL25__atomic_spin_count_relaxE:
	.long	12
	.align 4
_ZNSt8__detailL19__atomic_spin_countE:
	.long	16
	.section	.text$_ZNKSt8__detail21__default_spin_policyclEv,"x"
	.linkonce discard
	.align 2
	.globl	_ZNKSt8__detail21__default_spin_policyclEv
	.def	_ZNKSt8__detail21__default_spin_policyclEv;	.scl	2;	.type	32;	.endef
	.seh_proc	_ZNKSt8__detail21__default_spin_policyclEv
_ZNKSt8__detail21__default_spin_policyclEv:
.LFB8946:
	.loc 8 151 7
	pushq	%rbp	 #
	.seh_pushreg	%rbp
.LCFI93:
	movq	%rsp, %rbp	 #,
	.seh_setframe	%rbp, 0
.LCFI94:
	.seh_endprologue
	movq	%rcx, 16(%rbp)	 # this, this
 # C:/msys64/mingw64/include/c++/12.2.0/bits/atomic_wait.h:152:       { return false; }
	.loc 8 152 16
	movl	$0, %eax	 #, _1
 # C:/msys64/mingw64/include/c++/12.2.0/bits/atomic_wait.h:152:       { return false; }
	.loc 8 152 23
	popq	%rbp	 #
.LCFI95:
	ret	
.LFE8946:
	.seh_endproc
	.section	.text$_ZNSt8__detail18__waiter_pool_base13_M_enter_waitEv,"x"
	.linkonce discard
	.align 2
	.globl	_ZNSt8__detail18__waiter_pool_base13_M_enter_waitEv
	.def	_ZNSt8__detail18__waiter_pool_base13_M_enter_waitEv;	.scl	2;	.type	32;	.endef
	.seh_proc	_ZNSt8__detail18__waiter_pool_base13_M_enter_waitEv
_ZNSt8__detail18__waiter_pool_base13_M_enter_waitEv:
.LFB8949:
	.loc 8 208 7
	pushq	%rbp	 #
	.seh_pushreg	%rbp
.LCFI96:
	movq	%rsp, %rbp	 #,
	.seh_setframe	%rbp, 0
.LCFI97:
	.seh_endprologue
	movq	%rcx, 16(%rbp)	 # this, this
 # C:/msys64/mingw64/include/c++/12.2.0/bits/atomic_wait.h:209:       { __atomic_fetch_add(&_M_wait, 1, __ATOMIC_SEQ_CST); }
	.loc 8 209 28
	movq	16(%rbp), %rax	 # this, _1
 # C:/msys64/mingw64/include/c++/12.2.0/bits/atomic_wait.h:209:       { __atomic_fetch_add(&_M_wait, 1, __ATOMIC_SEQ_CST); }
	.loc 8 209 27
	lock addq	$1, (%rax)	 #,,* _1
 # C:/msys64/mingw64/include/c++/12.2.0/bits/atomic_wait.h:209:       { __atomic_fetch_add(&_M_wait, 1, __ATOMIC_SEQ_CST); }
	.loc 8 209 60
	nop	
	popq	%rbp	 #
.LCFI98:
	ret	
.LFE8949:
	.seh_endproc
	.section	.text$_ZNSt8__detail18__waiter_pool_base13_M_leave_waitEv,"x"
	.linkonce discard
	.align 2
	.globl	_ZNSt8__detail18__waiter_pool_base13_M_leave_waitEv
	.def	_ZNSt8__detail18__waiter_pool_base13_M_leave_waitEv;	.scl	2;	.type	32;	.endef
	.seh_proc	_ZNSt8__detail18__waiter_pool_base13_M_leave_waitEv
_ZNSt8__detail18__waiter_pool_base13_M_leave_waitEv:
.LFB8950:
	.loc 8 212 7
	pushq	%rbp	 #
	.seh_pushreg	%rbp
.LCFI99:
	movq	%rsp, %rbp	 #,
	.seh_setframe	%rbp, 0
.LCFI100:
	.seh_endprologue
	movq	%rcx, 16(%rbp)	 # this, this
 # C:/msys64/mingw64/include/c++/12.2.0/bits/atomic_wait.h:213:       { __atomic_fetch_sub(&_M_wait, 1, __ATOMIC_RELEASE); }
	.loc 8 213 28
	movq	16(%rbp), %rax	 # this, _1
 # C:/msys64/mingw64/include/c++/12.2.0/bits/atomic_wait.h:213:       { __atomic_fetch_sub(&_M_wait, 1, __ATOMIC_RELEASE); }
	.loc 8 213 27
	lock subq	$1, (%rax)	 #,,* _1
 # C:/msys64/mingw64/include/c++/12.2.0/bits/atomic_wait.h:213:       { __atomic_fetch_sub(&_M_wait, 1, __ATOMIC_RELEASE); }
	.loc 8 213 60
	nop	
	popq	%rbp	 #
.LCFI101:
	ret	
.LFE8950:
	.seh_endproc
	.section	.text$_ZNKSt8__detail18__waiter_pool_base10_M_waitingEv,"x"
	.linkonce discard
	.align 2
	.globl	_ZNKSt8__detail18__waiter_pool_base10_M_waitingEv
	.def	_ZNKSt8__detail18__waiter_pool_base10_M_waitingEv;	.scl	2;	.type	32;	.endef
	.seh_proc	_ZNKSt8__detail18__waiter_pool_base10_M_waitingEv
_ZNKSt8__detail18__waiter_pool_base10_M_waitingEv:
.LFB8951:
	.loc 8 216 7
	pushq	%rbp	 #
	.seh_pushreg	%rbp
.LCFI102:
	movq	%rsp, %rbp	 #,
	.seh_setframe	%rbp, 0
.LCFI103:
	subq	$16, %rsp	 #,
	.seh_stackalloc	16
	.seh_endprologue
	movq	%rcx, 16(%rbp)	 # this, this
 # C:/msys64/mingw64/include/c++/12.2.0/bits/atomic_wait.h:219: 	__atomic_load(&_M_wait, &__res, __ATOMIC_SEQ_CST);
	.loc 8 219 16
	movq	16(%rbp), %rax	 # this, _1
 # C:/msys64/mingw64/include/c++/12.2.0/bits/atomic_wait.h:219: 	__atomic_load(&_M_wait, &__res, __ATOMIC_SEQ_CST);
	.loc 8 219 15
	movq	(%rax), %rax	 #* _1, _2
	movq	%rax, -8(%rbp)	 # _2, __res
 # C:/msys64/mingw64/include/c++/12.2.0/bits/atomic_wait.h:220: 	return __res != 0;
	.loc 8 220 15
	movq	-8(%rbp), %rax	 # __res, __res.164_3
 # C:/msys64/mingw64/include/c++/12.2.0/bits/atomic_wait.h:220: 	return __res != 0;
	.loc 8 220 18
	testq	%rax, %rax	 # __res.164_3
	setne	%al	 #, _8
 # C:/msys64/mingw64/include/c++/12.2.0/bits/atomic_wait.h:221:       }
	.loc 8 221 7
	addq	$16, %rsp	 #,
	popq	%rbp	 #
.LCFI104:
	ret	
.LFE8951:
	.seh_endproc
	.section	.text$_ZNSt8__detail18__waiter_pool_base9_M_notifyEPKybb,"x"
	.linkonce discard
	.align 2
	.globl	_ZNSt8__detail18__waiter_pool_base9_M_notifyEPKybb
	.def	_ZNSt8__detail18__waiter_pool_base9_M_notifyEPKybb;	.scl	2;	.type	32;	.endef
	.seh_proc	_ZNSt8__detail18__waiter_pool_base9_M_notifyEPKybb
_ZNSt8__detail18__waiter_pool_base9_M_notifyEPKybb:
.LFB8952:
	.loc 8 224 7
	pushq	%rbp	 #
	.seh_pushreg	%rbp
.LCFI105:
	movq	%rsp, %rbp	 #,
	.seh_setframe	%rbp, 0
.LCFI106:
	subq	$32, %rsp	 #,
	.seh_stackalloc	32
	.seh_endprologue
	movq	%rcx, 16(%rbp)	 # this, this
	movq	%rdx, 24(%rbp)	 # __addr, __addr
	movl	%r8d, %eax	 # __all, tmp88
	movl	%r9d, %edx	 # __bare, tmp90
	movb	%al, 32(%rbp)	 # tmp89, __all
	movl	%edx, %eax	 # tmp90, tmp91
	movb	%al, 40(%rbp)	 # tmp91, __bare
 # C:/msys64/mingw64/include/c++/12.2.0/bits/atomic_wait.h:226: 	if (!(__bare || _M_waiting()))
	.loc 8 226 8
	movzbl	40(%rbp), %eax	 # __bare, tmp92
	xorl	$1, %eax	 #, _1
 # C:/msys64/mingw64/include/c++/12.2.0/bits/atomic_wait.h:226: 	if (!(__bare || _M_waiting()))
	.loc 8 226 6
	testb	%al, %al	 # _1
	je	.L74	 #,
 # C:/msys64/mingw64/include/c++/12.2.0/bits/atomic_wait.h:226: 	if (!(__bare || _M_waiting()))
	.loc 8 226 28 discriminator 1
	movq	16(%rbp), %rax	 # this, tmp93
	movq	%rax, %rcx	 # tmp93,
	call	_ZNKSt8__detail18__waiter_pool_base10_M_waitingEv	 #
	xorl	$1, %eax	 #, _3
 # C:/msys64/mingw64/include/c++/12.2.0/bits/atomic_wait.h:226: 	if (!(__bare || _M_waiting()))
	.loc 8 226 6 discriminator 1
	testb	%al, %al	 # _3
	je	.L74	 #,
 # C:/msys64/mingw64/include/c++/12.2.0/bits/atomic_wait.h:226: 	if (!(__bare || _M_waiting()))
	.loc 8 226 6 is_stmt 0 discriminator 3
	movl	$1, %eax	 #, iftmp.163_6
	jmp	.L75	 #
.L74:
 # C:/msys64/mingw64/include/c++/12.2.0/bits/atomic_wait.h:226: 	if (!(__bare || _M_waiting()))
	.loc 8 226 6 discriminator 4
	movl	$0, %eax	 #, iftmp.163_6
.L75:
 # C:/msys64/mingw64/include/c++/12.2.0/bits/atomic_wait.h:226: 	if (!(__bare || _M_waiting()))
	.loc 8 226 2 is_stmt 1 discriminator 6
	testb	%al, %al	 # iftmp.163_6
	jne	.L79	 #,
 # C:/msys64/mingw64/include/c++/12.2.0/bits/atomic_wait.h:232: 	if (__all)
	.loc 8 232 2
	cmpb	$0, 32(%rbp)	 #, __all
	je	.L78	 #,
 # C:/msys64/mingw64/include/c++/12.2.0/bits/atomic_wait.h:233: 	  _M_cv.notify_all();
	.loc 8 233 20
	movq	16(%rbp), %rax	 # this, tmp94
	addq	$72, %rax	 #, _4
	movq	%rax, %rcx	 # _4,
	call	_ZNSt9__condvar10notify_allEv	 #
	jmp	.L73	 #
.L78:
 # C:/msys64/mingw64/include/c++/12.2.0/bits/atomic_wait.h:235: 	  _M_cv.notify_one();
	.loc 8 235 20
	movq	16(%rbp), %rax	 # this, tmp95
	addq	$72, %rax	 #, _5
	movq	%rax, %rcx	 # _5,
	call	_ZNSt9__condvar10notify_oneEv	 #
	jmp	.L73	 #
.L79:
 # C:/msys64/mingw64/include/c++/12.2.0/bits/atomic_wait.h:227: 	  return;
	.loc 8 227 4
	nop	
.L73:
 # C:/msys64/mingw64/include/c++/12.2.0/bits/atomic_wait.h:237:       }
	.loc 8 237 7
	addq	$32, %rsp	 #,
	popq	%rbp	 #
.LCFI107:
	ret	
.LFE8952:
	.seh_endproc
	.globl	_ZZNSt8__detail18__waiter_pool_base6_S_forEPKvE3__w
	.section	.data$_ZZNSt8__detail18__waiter_pool_base6_S_forEPKvE3__w,"w"
	.linkonce same_size
	.align 64
_ZZNSt8__detail18__waiter_pool_base6_S_forEPKvE3__w:
	.space 2048
	.section	.text$_ZNSt5mutexD1Ev,"x"
	.linkonce discard
	.align 2
	.globl	_ZNSt5mutexD1Ev
	.def	_ZNSt5mutexD1Ev;	.scl	2;	.type	32;	.endef
	.seh_proc	_ZNSt5mutexD1Ev
_ZNSt5mutexD1Ev:
.LFB8957:
	.loc 7 92 5
	pushq	%rbp	 #
	.seh_pushreg	%rbp
.LCFI108:
	movq	%rsp, %rbp	 #,
	.seh_setframe	%rbp, 0
.LCFI109:
	subq	$32, %rsp	 #,
	.seh_stackalloc	32
	.seh_endprologue
	movq	%rcx, 16(%rbp)	 # this, this
.LBB90:
 # C:/msys64/mingw64/include/c++/12.2.0/bits/std_mutex.h:92:     ~mutex() = default;
	.loc 7 92 5
	movq	16(%rbp), %rax	 # this, _1
	movq	%rax, %rcx	 # _1,
	call	_ZNSt12__mutex_baseD2Ev	 #
.LBE90:
	nop	
	addq	$32, %rsp	 #,
	popq	%rbp	 #
.LCFI110:
	ret	
.LFE8957:
	.seh_endproc
	.section	.text$_ZNSt8__detail18__waiter_pool_baseD1Ev,"x"
	.linkonce discard
	.align 2
	.globl	_ZNSt8__detail18__waiter_pool_baseD1Ev
	.def	_ZNSt8__detail18__waiter_pool_baseD1Ev;	.scl	2;	.type	32;	.endef
	.seh_proc	_ZNSt8__detail18__waiter_pool_baseD1Ev
_ZNSt8__detail18__waiter_pool_baseD1Ev:
.LFB8959:
	.loc 8 188 12
	pushq	%rbp	 #
	.seh_pushreg	%rbp
.LCFI111:
	movq	%rsp, %rbp	 #,
	.seh_setframe	%rbp, 0
.LCFI112:
	subq	$32, %rsp	 #,
	.seh_stackalloc	32
	.seh_endprologue
	movq	%rcx, 16(%rbp)	 # this, this
.LBB91:
 # C:/msys64/mingw64/include/c++/12.2.0/bits/atomic_wait.h:188:     struct __waiter_pool_base
	.loc 8 188 12
	movq	16(%rbp), %rax	 # this, tmp84
	addq	$72, %rax	 #, _1
	movq	%rax, %rcx	 # _1,
	call	_ZNSt9__condvarD1Ev	 #
	movq	16(%rbp), %rax	 # this, tmp85
	addq	$8, %rax	 #, _2
	movq	%rax, %rcx	 # _2,
	call	_ZNSt5mutexD1Ev	 #
.LBE91:
	nop	
	addq	$32, %rsp	 #,
	popq	%rbp	 #
.LCFI113:
	ret	
.LFE8959:
	.seh_endproc
	.section	.text$_ZNSt5mutexC1Ev,"x"
	.linkonce discard
	.align 2
	.globl	_ZNSt5mutexC1Ev
	.def	_ZNSt5mutexC1Ev;	.scl	2;	.type	32;	.endef
	.seh_proc	_ZNSt5mutexC1Ev
_ZNSt5mutexC1Ev:
.LFB8963:
	.loc 7 91 5
	pushq	%rbp	 #
	.seh_pushreg	%rbp
.LCFI114:
	movq	%rsp, %rbp	 #,
	.seh_setframe	%rbp, 0
.LCFI115:
	subq	$32, %rsp	 #,
	.seh_stackalloc	32
	.seh_endprologue
	movq	%rcx, 16(%rbp)	 # this, this
.LBB92:
 # C:/msys64/mingw64/include/c++/12.2.0/bits/std_mutex.h:91:     mutex() noexcept = default;
	.loc 7 91 5
	movq	16(%rbp), %rax	 # this, _1
	movq	%rax, %rcx	 # _1,
	call	_ZNSt12__mutex_baseC2Ev	 #
.LBE92:
	nop	
	addq	$32, %rsp	 #,
	popq	%rbp	 #
.LCFI116:
	ret	
.LFE8963:
	.seh_endproc
	.section	.text$_ZNSt8__detail18__waiter_pool_baseC1Ev,"x"
	.linkonce discard
	.align 2
	.globl	_ZNSt8__detail18__waiter_pool_baseC1Ev
	.def	_ZNSt8__detail18__waiter_pool_baseC1Ev;	.scl	2;	.type	32;	.endef
	.seh_proc	_ZNSt8__detail18__waiter_pool_baseC1Ev
_ZNSt8__detail18__waiter_pool_baseC1Ev:
.LFB8965:
	.loc 8 205 7
	pushq	%rbp	 #
	.seh_pushreg	%rbp
.LCFI117:
	movq	%rsp, %rbp	 #,
	.seh_setframe	%rbp, 0
.LCFI118:
	subq	$32, %rsp	 #,
	.seh_stackalloc	32
	.seh_endprologue
	movq	%rcx, 16(%rbp)	 # this, this
.LBB93:
 # C:/msys64/mingw64/include/c++/12.2.0/bits/atomic_wait.h:205:       __waiter_pool_base() = default;
	.loc 8 205 7
	movq	16(%rbp), %rax	 # this, tmp86
	movq	$0, (%rax)	 #, this_6(D)->_M_wait
	movq	16(%rbp), %rax	 # this, tmp87
	addq	$8, %rax	 #, _1
	movq	%rax, %rcx	 # _1,
	call	_ZNSt5mutexC1Ev	 #
	movq	16(%rbp), %rax	 # this, tmp88
	movq	$0, 64(%rax)	 #, this_6(D)->_M_ver
	movq	16(%rbp), %rax	 # this, tmp89
	addq	$72, %rax	 #, _2
	movq	%rax, %rcx	 # _2,
	call	_ZNSt9__condvarC1Ev	 #
.LBE93:
	nop	
	addq	$32, %rsp	 #,
	popq	%rbp	 #
.LCFI119:
	ret	
.LFE8965:
	.seh_endproc
	.globl	_ZGVZNSt8__detail18__waiter_pool_base6_S_forEPKvE3__w
	.section	.data$_ZGVZNSt8__detail18__waiter_pool_base6_S_forEPKvE3__w,"w"
	.linkonce same_size
	.align 8
_ZGVZNSt8__detail18__waiter_pool_base6_S_forEPKvE3__w:
	.space 8
	.text
	.def	__tcf_0;	.scl	3;	.type	32;	.endef
	.seh_proc	__tcf_0
__tcf_0:
.LFB8966:
	.loc 8 243 36
	pushq	%rbp	 #
	.seh_pushreg	%rbp
.LCFI120:
	pushq	%rbx	 #
	.seh_pushreg	%rbx
.LCFI121:
	subq	$40, %rsp	 #,
	.seh_stackalloc	40
.LCFI122:
	leaq	32(%rsp), %rbp	 #,
	.seh_setframe	%rbp, 32
.LCFI123:
	.seh_endprologue
 # C:/msys64/mingw64/include/c++/12.2.0/bits/atomic_wait.h:243: 	static __waiter_pool_base __w[__ct];
	.loc 8 243 36
	leaq	2048+_ZZNSt8__detail18__waiter_pool_base6_S_forEPKvE3__w(%rip), %rbx	 #, _1
.L86:
 # C:/msys64/mingw64/include/c++/12.2.0/bits/atomic_wait.h:243: 	static __waiter_pool_base __w[__ct];
	.loc 8 243 36 is_stmt 0 discriminator 4
	leaq	_ZZNSt8__detail18__waiter_pool_base6_S_forEPKvE3__w(%rip), %rax	 #, tmp83
	cmpq	%rax, %rbx	 # tmp83, _1
	je	.L84	 #,
 # C:/msys64/mingw64/include/c++/12.2.0/bits/atomic_wait.h:243: 	static __waiter_pool_base __w[__ct];
	.loc 8 243 36 discriminator 3
	addq	$-128, %rbx	 #, _1
	movq	%rbx, %rcx	 # _1,
	call	_ZNSt8__detail18__waiter_pool_baseD1Ev	 #
	jmp	.L86	 #
.L84:
 # C:/msys64/mingw64/include/c++/12.2.0/bits/atomic_wait.h:243: 	static __waiter_pool_base __w[__ct];
	.loc 8 243 36
	addq	$40, %rsp	 #,
	popq	%rbx	 #
.LCFI124:
	popq	%rbp	 #
.LCFI125:
	ret	
.LFE8966:
	.seh_endproc
	.section	.text$_ZNSt8__detail18__waiter_pool_base6_S_forEPKv,"x"
	.linkonce discard
	.globl	_ZNSt8__detail18__waiter_pool_base6_S_forEPKv
	.def	_ZNSt8__detail18__waiter_pool_base6_S_forEPKv;	.scl	2;	.type	32;	.endef
	.seh_proc	_ZNSt8__detail18__waiter_pool_base6_S_forEPKv
_ZNSt8__detail18__waiter_pool_base6_S_forEPKv:
.LFB8953:
	.loc 8 240 7 is_stmt 1
	pushq	%rbp	 #
	.seh_pushreg	%rbp
.LCFI126:
	pushq	%rsi	 #
	.seh_pushreg	%rsi
.LCFI127:
	pushq	%rbx	 #
	.seh_pushreg	%rbx
.LCFI128:
	subq	$48, %rsp	 #,
	.seh_stackalloc	48
.LCFI129:
	leaq	48(%rsp), %rbp	 #,
	.seh_setframe	%rbp, 48
.LCFI130:
	.seh_endprologue
	movq	%rcx, 32(%rbp)	 # __addr, __addr
 # C:/msys64/mingw64/include/c++/12.2.0/bits/atomic_wait.h:242: 	constexpr uintptr_t __ct = 16;
	.loc 8 242 22
	movq	$16, -8(%rbp)	 #, __ct
 # C:/msys64/mingw64/include/c++/12.2.0/bits/atomic_wait.h:243: 	static __waiter_pool_base __w[__ct];
	.loc 8 243 36
	movzbl	_ZGVZNSt8__detail18__waiter_pool_base6_S_forEPKvE3__w(%rip), %eax	 #, _1
	testb	%al, %al	 # _1
	sete	%al	 #, retval.153_15
	testb	%al, %al	 # retval.153_15
	je	.L88	 #,
 # C:/msys64/mingw64/include/c++/12.2.0/bits/atomic_wait.h:243: 	static __waiter_pool_base __w[__ct];
	.loc 8 243 36 is_stmt 0 discriminator 1
	leaq	_ZGVZNSt8__detail18__waiter_pool_base6_S_forEPKvE3__w(%rip), %rax	 #, tmp98
	movq	%rax, %rcx	 # tmp98,
	call	__cxa_guard_acquire	 #
	testl	%eax, %eax	 # _2
	setne	%al	 #, retval.154_17
	testb	%al, %al	 # retval.154_17
	je	.L88	 #,
 # C:/msys64/mingw64/include/c++/12.2.0/bits/atomic_wait.h:243: 	static __waiter_pool_base __w[__ct];
	.loc 8 243 36 discriminator 2
	leaq	_ZZNSt8__detail18__waiter_pool_base6_S_forEPKvE3__w(%rip), %rax	 #, _19
	movl	$15, %ebx	 #, _9
	movq	%rax, %rsi	 # _19, _8
	jmp	.L89	 #
.L90:
 # C:/msys64/mingw64/include/c++/12.2.0/bits/atomic_wait.h:243: 	static __waiter_pool_base __w[__ct];
	.loc 8 243 36 discriminator 5
	movq	%rsi, %rcx	 # _8,
	call	_ZNSt8__detail18__waiter_pool_baseC1Ev	 #
	subq	$1, %rbx	 #, _9
	subq	$-128, %rsi	 #, _8
.L89:
 # C:/msys64/mingw64/include/c++/12.2.0/bits/atomic_wait.h:243: 	static __waiter_pool_base __w[__ct];
	.loc 8 243 36 discriminator 3
	testq	%rbx, %rbx	 # _9
	jns	.L90	 #,
 # C:/msys64/mingw64/include/c++/12.2.0/bits/atomic_wait.h:243: 	static __waiter_pool_base __w[__ct];
	.loc 8 243 36 discriminator 6
	leaq	__tcf_0(%rip), %rax	 #, tmp99
	movq	%rax, %rcx	 # tmp99,
	call	atexit	 #
	leaq	_ZGVZNSt8__detail18__waiter_pool_base6_S_forEPKvE3__w(%rip), %rax	 #, tmp100
	movq	%rax, %rcx	 # tmp100,
	call	__cxa_guard_release	 #
.L88:
 # C:/msys64/mingw64/include/c++/12.2.0/bits/atomic_wait.h:244: 	auto __key = (uintptr_t(__addr) >> 2) % __ct;
	.loc 8 244 34 is_stmt 1
	movq	32(%rbp), %rax	 # __addr, __addr.156_6
	shrq	$2, %rax	 #, _7
 # C:/msys64/mingw64/include/c++/12.2.0/bits/atomic_wait.h:244: 	auto __key = (uintptr_t(__addr) >> 2) % __ct;
	.loc 8 244 7
	andl	$15, %eax	 #, tmp101
	movq	%rax, -16(%rbp)	 # tmp101, __key
 # C:/msys64/mingw64/include/c++/12.2.0/bits/atomic_wait.h:245: 	return __w[__key];
	.loc 8 245 18
	movq	-16(%rbp), %rax	 # __key, tmp103
	salq	$7, %rax	 #, tmp103
	movq	%rax, %rdx	 # tmp103, tmp102
	leaq	_ZZNSt8__detail18__waiter_pool_base6_S_forEPKvE3__w(%rip), %rax	 #, tmp104
	addq	%rdx, %rax	 # tmp102, _31
 # C:/msys64/mingw64/include/c++/12.2.0/bits/atomic_wait.h:246:       }
	.loc 8 246 7
	addq	$48, %rsp	 #,
	popq	%rbx	 #
.LCFI131:
	popq	%rsi	 #
.LCFI132:
	popq	%rbp	 #
.LCFI133:
	ret	
.LFE8953:
	.seh_endproc
	.section	.text$_ZNSt8__detail13__waiter_pool10_M_do_waitEPKyy,"x"
	.linkonce discard
	.align 2
	.globl	_ZNSt8__detail13__waiter_pool10_M_do_waitEPKyy
	.def	_ZNSt8__detail13__waiter_pool10_M_do_waitEPKyy;	.scl	2;	.type	32;	.endef
	.seh_proc	_ZNSt8__detail13__waiter_pool10_M_do_waitEPKyy
_ZNSt8__detail13__waiter_pool10_M_do_waitEPKyy:
.LFB8967:
	.loc 8 252 7
	pushq	%rbp	 #
	.seh_pushreg	%rbp
.LCFI134:
	movq	%rsp, %rbp	 #,
	.seh_setframe	%rbp, 0
.LCFI135:
	subq	$48, %rsp	 #,
	.seh_stackalloc	48
	.seh_endprologue
	movq	%rcx, 16(%rbp)	 # this, this
	movq	%rdx, 24(%rbp)	 # __addr, __addr
	movq	%r8, 32(%rbp)	 # __old, __old
 # C:/msys64/mingw64/include/c++/12.2.0/bits/atomic_wait.h:258: 	__atomic_load(__addr, &__val, __ATOMIC_SEQ_CST);
	.loc 8 258 15
	movq	24(%rbp), %rax	 # __addr, tmp87
	movq	(%rax), %rax	 #, _1
	movq	%rax, -8(%rbp)	 # _1, __val
.LBB94:
 # C:/msys64/mingw64/include/c++/12.2.0/bits/atomic_wait.h:259: 	if (__val == __old)
	.loc 8 259 12
	movq	-8(%rbp), %rax	 # __val, __val.195_2
 # C:/msys64/mingw64/include/c++/12.2.0/bits/atomic_wait.h:259: 	if (__val == __old)
	.loc 8 259 2
	cmpq	%rax, 32(%rbp)	 # __val.195_2, __old
	jne	.L94	 #,
.LBB95:
 # C:/msys64/mingw64/include/c++/12.2.0/bits/atomic_wait.h:261: 	    lock_guard<mutex> __l(_M_mtx);
	.loc 8 261 28
	movq	16(%rbp), %rax	 # this, tmp88
	leaq	8(%rax), %rdx	 #, _3
 # C:/msys64/mingw64/include/c++/12.2.0/bits/atomic_wait.h:261: 	    lock_guard<mutex> __l(_M_mtx);
	.loc 8 261 34
	leaq	-16(%rbp), %rax	 #, tmp89
	movq	%rax, %rcx	 # tmp89,
	call	_ZNSt10lock_guardISt5mutexEC1ERS0_	 #
 # C:/msys64/mingw64/include/c++/12.2.0/bits/atomic_wait.h:262: 	    _M_cv.wait(_M_mtx);
	.loc 8 262 16
	movq	16(%rbp), %rax	 # this, tmp90
	addq	$72, %rax	 #, _4
 # C:/msys64/mingw64/include/c++/12.2.0/bits/atomic_wait.h:262: 	    _M_cv.wait(_M_mtx);
	.loc 8 262 17
	movq	16(%rbp), %rdx	 # this, tmp91
	addq	$8, %rdx	 #, _5
 # C:/msys64/mingw64/include/c++/12.2.0/bits/atomic_wait.h:262: 	    _M_cv.wait(_M_mtx);
	.loc 8 262 16
	movq	%rax, %rcx	 # _4,
	call	_ZNSt9__condvar4waitERSt5mutex	 #
 # C:/msys64/mingw64/include/c++/12.2.0/bits/atomic_wait.h:263: 	  }
	.loc 8 263 4
	leaq	-16(%rbp), %rax	 #, tmp92
	movq	%rax, %rcx	 # tmp92,
	call	_ZNSt10lock_guardISt5mutexED1Ev	 #
.L94:
.LBE95:
.LBE94:
 # C:/msys64/mingw64/include/c++/12.2.0/bits/atomic_wait.h:265:       }
	.loc 8 265 7
	nop	
	addq	$48, %rsp	 #,
	popq	%rbp	 #
.LCFI136:
	ret	
.LFE8967:
	.seh_handler	__gxx_personality_seh0, @unwind, @except
	.seh_handlerdata
.LLSDA8967:
	.byte	0xff
	.byte	0xff
	.byte	0x1
	.uleb128 .LLSDACSE8967-.LLSDACSB8967
.LLSDACSB8967:
.LLSDACSE8967:
	.section	.text$_ZNSt8__detail13__waiter_pool10_M_do_waitEPKyy,"x"
	.linkonce discard
	.seh_endproc
	.section	.text$_ZStorSt12memory_orderSt23__memory_order_modifier,"x"
	.linkonce discard
	.globl	_ZStorSt12memory_orderSt23__memory_order_modifier
	.def	_ZStorSt12memory_orderSt23__memory_order_modifier;	.scl	2;	.type	32;	.endef
	.seh_proc	_ZStorSt12memory_orderSt23__memory_order_modifier
_ZStorSt12memory_orderSt23__memory_order_modifier:
.LFB8987:
	.file 9 "C:/msys64/mingw64/include/c++/12.2.0/bits/atomic_base.h"
	.loc 9 99 3
	pushq	%rbp	 #
	.seh_pushreg	%rbp
.LCFI137:
	movq	%rsp, %rbp	 #,
	.seh_setframe	%rbp, 0
.LCFI138:
	.seh_endprologue
	movl	%ecx, 16(%rbp)	 # __m, __m
	movl	%edx, 24(%rbp)	 # __mod, __mod
 # C:/msys64/mingw64/include/c++/12.2.0/bits/atomic_base.h:100:     return memory_order(int(__m) | int(__mod));
	.loc 9 100 36
	movl	24(%rbp), %eax	 # __mod, __mod.136_1
 # C:/msys64/mingw64/include/c++/12.2.0/bits/atomic_base.h:100:     return memory_order(int(__m) | int(__mod));
	.loc 9 100 46
	orl	16(%rbp), %eax	 # __m, _4
 # C:/msys64/mingw64/include/c++/12.2.0/bits/atomic_base.h:101:   }
	.loc 9 101 3
	popq	%rbp	 #
.LCFI139:
	ret	
.LFE8987:
	.seh_endproc
	.section	.text$_ZStanSt12memory_orderSt23__memory_order_modifier,"x"
	.linkonce discard
	.globl	_ZStanSt12memory_orderSt23__memory_order_modifier
	.def	_ZStanSt12memory_orderSt23__memory_order_modifier;	.scl	2;	.type	32;	.endef
	.seh_proc	_ZStanSt12memory_orderSt23__memory_order_modifier
_ZStanSt12memory_orderSt23__memory_order_modifier:
.LFB8988:
	.loc 9 105 3
	pushq	%rbp	 #
	.seh_pushreg	%rbp
.LCFI140:
	movq	%rsp, %rbp	 #,
	.seh_setframe	%rbp, 0
.LCFI141:
	.seh_endprologue
	movl	%ecx, 16(%rbp)	 # __m, __m
	movl	%edx, 24(%rbp)	 # __mod, __mod
 # C:/msys64/mingw64/include/c++/12.2.0/bits/atomic_base.h:106:     return memory_order(int(__m) & int(__mod));
	.loc 9 106 36
	movl	24(%rbp), %eax	 # __mod, __mod.130_1
 # C:/msys64/mingw64/include/c++/12.2.0/bits/atomic_base.h:106:     return memory_order(int(__m) & int(__mod));
	.loc 9 106 46
	andl	16(%rbp), %eax	 # __m, _4
 # C:/msys64/mingw64/include/c++/12.2.0/bits/atomic_base.h:107:   }
	.loc 9 107 3
	popq	%rbp	 #
.LCFI142:
	ret	
.LFE8988:
	.seh_endproc
	.section	.text$_ZSt24__cmpexch_failure_order2St12memory_order,"x"
	.linkonce discard
	.globl	_ZSt24__cmpexch_failure_order2St12memory_order
	.def	_ZSt24__cmpexch_failure_order2St12memory_order;	.scl	2;	.type	32;	.endef
	.seh_proc	_ZSt24__cmpexch_failure_order2St12memory_order
_ZSt24__cmpexch_failure_order2St12memory_order:
.LFB8989:
	.loc 9 112 3
	pushq	%rbp	 #
	.seh_pushreg	%rbp
.LCFI143:
	movq	%rsp, %rbp	 #,
	.seh_setframe	%rbp, 0
.LCFI144:
	.seh_endprologue
	movl	%ecx, 16(%rbp)	 # __m, __m
 # C:/msys64/mingw64/include/c++/12.2.0/bits/atomic_base.h:113:     return __m == memory_order_acq_rel ? memory_order_acquire
	.loc 9 113 16
	movl	16(%rbp), %eax	 # __m, __m.132_1
 # C:/msys64/mingw64/include/c++/12.2.0/bits/atomic_base.h:113:     return __m == memory_order_acq_rel ? memory_order_acquire
	.loc 9 113 40
	cmpl	$4, %eax	 #, __m.132_1
	je	.L100	 #,
 # C:/msys64/mingw64/include/c++/12.2.0/bits/atomic_base.h:114:       : __m == memory_order_release ? memory_order_relaxed : __m;
	.loc 9 114 13 discriminator 1
	movl	16(%rbp), %eax	 # __m, __m.134_2
 # C:/msys64/mingw64/include/c++/12.2.0/bits/atomic_base.h:113:     return __m == memory_order_acq_rel ? memory_order_acquire
	.loc 9 113 40 discriminator 1
	cmpl	$3, %eax	 #, __m.134_2
	je	.L101	 #,
 # C:/msys64/mingw64/include/c++/12.2.0/bits/atomic_base.h:114:       : __m == memory_order_release ? memory_order_relaxed : __m;
	.loc 9 114 62 discriminator 3
	leaq	16(%rbp), %rax	 #, __m.135_3
 # C:/msys64/mingw64/include/c++/12.2.0/bits/atomic_base.h:113:     return __m == memory_order_acq_rel ? memory_order_acquire
	.loc 9 113 40 discriminator 3
	movl	(%rax), %eax	 # MEM[(const memory_order &)__m.135_3], iftmp.133_5
 # C:/msys64/mingw64/include/c++/12.2.0/bits/atomic_base.h:114:       : __m == memory_order_release ? memory_order_relaxed : __m;
	.loc 9 114 62 discriminator 3
	jmp	.L104	 #
.L101:
 # C:/msys64/mingw64/include/c++/12.2.0/bits/atomic_base.h:113:     return __m == memory_order_acq_rel ? memory_order_acquire
	.loc 9 113 40 discriminator 4
	movl	$0, %eax	 #, iftmp.133_5
 # C:/msys64/mingw64/include/c++/12.2.0/bits/atomic_base.h:114:       : __m == memory_order_release ? memory_order_relaxed : __m;
	.loc 9 114 62 discriminator 4
	jmp	.L104	 #
.L100:
 # C:/msys64/mingw64/include/c++/12.2.0/bits/atomic_base.h:113:     return __m == memory_order_acq_rel ? memory_order_acquire
	.loc 9 113 40 discriminator 2
	movl	$2, %eax	 #, iftmp.133_5
.L104:
 # C:/msys64/mingw64/include/c++/12.2.0/bits/atomic_base.h:115:   }
	.loc 9 115 3 discriminator 1
	popq	%rbp	 #
.LCFI145:
	ret	
.LFE8989:
	.seh_endproc
	.section	.text$_ZSt23__cmpexch_failure_orderSt12memory_order,"x"
	.linkonce discard
	.globl	_ZSt23__cmpexch_failure_orderSt12memory_order
	.def	_ZSt23__cmpexch_failure_orderSt12memory_order;	.scl	2;	.type	32;	.endef
	.seh_proc	_ZSt23__cmpexch_failure_orderSt12memory_order
_ZSt23__cmpexch_failure_orderSt12memory_order:
.LFB8990:
	.loc 9 119 3
	pushq	%rbp	 #
	.seh_pushreg	%rbp
.LCFI146:
	pushq	%rbx	 #
	.seh_pushreg	%rbx
.LCFI147:
	subq	$40, %rsp	 #,
	.seh_stackalloc	40
.LCFI148:
	leaq	32(%rsp), %rbp	 #,
	.seh_setframe	%rbp, 32
.LCFI149:
	.seh_endprologue
	movl	%ecx, 32(%rbp)	 # __m, __m
 # C:/msys64/mingw64/include/c++/12.2.0/bits/atomic_base.h:121:       | __memory_order_modifier(__m & __memory_order_modifier_mask));
	.loc 9 121 37
	movl	32(%rbp), %eax	 # __m, tmp88
	movl	$-65536, %edx	 #,
	movl	%eax, %ecx	 # tmp88,
	call	_ZStanSt12memory_orderSt23__memory_order_modifier	 #
 # C:/msys64/mingw64/include/c++/12.2.0/bits/atomic_base.h:121:       | __memory_order_modifier(__m & __memory_order_modifier_mask));
	.loc 9 121 7
	movl	%eax, %ebx	 # _1, _2
	movl	32(%rbp), %eax	 # __m, tmp89
	movl	$65535, %edx	 #,
	movl	%eax, %ecx	 # tmp89,
	call	_ZStanSt12memory_orderSt23__memory_order_modifier	 #
	movl	%eax, %ecx	 # _3,
	call	_ZSt24__cmpexch_failure_order2St12memory_order	 #
	movl	%ebx, %edx	 # _2,
	movl	%eax, %ecx	 # _4,
	call	_ZStorSt12memory_orderSt23__memory_order_modifier	 #
 # C:/msys64/mingw64/include/c++/12.2.0/bits/atomic_base.h:122:   }
	.loc 9 122 3
	addq	$40, %rsp	 #,
	popq	%rbx	 #
.LCFI150:
	popq	%rbp	 #
.LCFI151:
	ret	
.LFE8990:
	.seh_endproc
	.section	.text$_ZSt32__is_valid_cmpexch_failure_orderSt12memory_order,"x"
	.linkonce discard
	.globl	_ZSt32__is_valid_cmpexch_failure_orderSt12memory_order
	.def	_ZSt32__is_valid_cmpexch_failure_orderSt12memory_order;	.scl	2;	.type	32;	.endef
	.seh_proc	_ZSt32__is_valid_cmpexch_failure_orderSt12memory_order
_ZSt32__is_valid_cmpexch_failure_orderSt12memory_order:
.LFB8991:
	.loc 9 126 3
	pushq	%rbp	 #
	.seh_pushreg	%rbp
.LCFI152:
	movq	%rsp, %rbp	 #,
	.seh_setframe	%rbp, 0
.LCFI153:
	subq	$32, %rsp	 #,
	.seh_stackalloc	32
	.seh_endprologue
	movl	%ecx, 16(%rbp)	 # __m, __m
 # C:/msys64/mingw64/include/c++/12.2.0/bits/atomic_base.h:127:     return (__m & __memory_order_mask) != memory_order_release
	.loc 9 127 17
	movl	16(%rbp), %eax	 # __m, tmp86
	movl	$65535, %edx	 #,
	movl	%eax, %ecx	 # tmp86,
	call	_ZStanSt12memory_orderSt23__memory_order_modifier	 #
 # C:/msys64/mingw64/include/c++/12.2.0/bits/atomic_base.h:128: 	&& (__m & __memory_order_mask) != memory_order_acq_rel;
	.loc 9 128 2
	cmpl	$3, %eax	 #, _1
	je	.L108	 #,
 # C:/msys64/mingw64/include/c++/12.2.0/bits/atomic_base.h:128: 	&& (__m & __memory_order_mask) != memory_order_acq_rel;
	.loc 9 128 10 discriminator 1
	movl	16(%rbp), %eax	 # __m, tmp87
	movl	$65535, %edx	 #,
	movl	%eax, %ecx	 # tmp87,
	call	_ZStanSt12memory_orderSt23__memory_order_modifier	 #
 # C:/msys64/mingw64/include/c++/12.2.0/bits/atomic_base.h:128: 	&& (__m & __memory_order_mask) != memory_order_acq_rel;
	.loc 9 128 2 discriminator 1
	cmpl	$4, %eax	 #, _2
	je	.L108	 #,
 # C:/msys64/mingw64/include/c++/12.2.0/bits/atomic_base.h:128: 	&& (__m & __memory_order_mask) != memory_order_acq_rel;
	.loc 9 128 2 is_stmt 0 discriminator 3
	movl	$1, %eax	 #, iftmp.139_3
	jmp	.L109	 #
.L108:
 # C:/msys64/mingw64/include/c++/12.2.0/bits/atomic_base.h:128: 	&& (__m & __memory_order_mask) != memory_order_acq_rel;
	.loc 9 128 2 discriminator 4
	movl	$0, %eax	 #, iftmp.139_3
.L109:
 # C:/msys64/mingw64/include/c++/12.2.0/bits/atomic_base.h:129:   }
	.loc 9 129 3 is_stmt 1 discriminator 6
	addq	$32, %rsp	 #,
	popq	%rbp	 #
.LCFI154:
	ret	
.LFE8991:
	.seh_endproc
	.section .rdata,"dr"
_ZN6__pstl9execution2v1L3seqE:
	.space 1
_ZN6__pstl9execution2v1L3parE:
	.space 1
_ZN6__pstl9execution2v1L9par_unseqE:
	.space 1
_ZN6__pstl9execution2v1L5unseqE:
	.space 1
	.section	.text$_ZNSt6atomicIbEaSEb,"x"
	.linkonce discard
	.align 2
	.globl	_ZNSt6atomicIbEaSEb
	.def	_ZNSt6atomicIbEaSEb;	.scl	2;	.type	32;	.endef
	.seh_proc	_ZNSt6atomicIbEaSEb
_ZNSt6atomicIbEaSEb:
.LFB9402:
	.file 10 "C:/msys64/mingw64/include/c++/12.2.0/atomic"
	.loc 10 79 5
	pushq	%rbp	 #
	.seh_pushreg	%rbp
.LCFI155:
	movq	%rsp, %rbp	 #,
	.seh_setframe	%rbp, 0
.LCFI156:
	subq	$32, %rsp	 #,
	.seh_stackalloc	32
	.seh_endprologue
	movq	%rcx, 16(%rbp)	 # this, this
	movl	%edx, %eax	 # __i, tmp86
	movb	%al, 24(%rbp)	 # tmp87, __i
 # C:/msys64/mingw64/include/c++/12.2.0/atomic:80:     { return _M_base.operator=(__i); }
	.loc 10 80 31
	movq	16(%rbp), %rax	 # this, _1
	movzbl	24(%rbp), %edx	 # __i, _2
	movq	%rax, %rcx	 # _1,
	call	_ZNSt13__atomic_baseIbEaSEb	 #
 # C:/msys64/mingw64/include/c++/12.2.0/atomic:80:     { return _M_base.operator=(__i); }
	.loc 10 80 38
	addq	$32, %rsp	 #,
	popq	%rbp	 #
.LCFI157:
	ret	
.LFE9402:
	.seh_endproc
	.section	.text$_ZNKSt6atomicIbEcvbEv,"x"
	.linkonce discard
	.align 2
	.globl	_ZNKSt6atomicIbEcvbEv
	.def	_ZNKSt6atomicIbEcvbEv;	.scl	2;	.type	32;	.endef
	.seh_proc	_ZNKSt6atomicIbEcvbEv
_ZNKSt6atomicIbEcvbEv:
.LFB9404:
	.loc 10 86 5
	pushq	%rbp	 #
	.seh_pushreg	%rbp
.LCFI158:
	movq	%rsp, %rbp	 #,
	.seh_setframe	%rbp, 0
.LCFI159:
	subq	$48, %rsp	 #,
	.seh_stackalloc	48
	.seh_endprologue
	movq	%rcx, 16(%rbp)	 # this, this
 # C:/msys64/mingw64/include/c++/12.2.0/atomic:87:     { return _M_base.load(); }
	.loc 10 87 26
	movq	16(%rbp), %rax	 # this, _1
	movq	%rax, -8(%rbp)	 # _1, this
	movl	$5, -12(%rbp)	 #, __m
.LBB96:
.LBB97:
 # C:/msys64/mingw64/include/c++/12.2.0/bits/atomic_base.h:484: 	  = __m & __memory_order_mask;
	.loc 9 484 10
	movl	-12(%rbp), %eax	 # __m, tmp91
	movl	$65535, %edx	 #,
	movl	%eax, %ecx	 # tmp91,
	call	_ZStanSt12memory_orderSt23__memory_order_modifier	 #
	movl	%eax, -16(%rbp)	 # tmp92, __b
 # C:/msys64/mingw64/include/c++/12.2.0/bits/atomic_base.h:485: 	__glibcxx_assert(__b != memory_order_release);
	.loc 9 485 2
	call	__is_constant_evaluated	 #
	testb	%al, %al	 # _8
	je	.L114	 #,
	cmpl	$3, -16(%rbp)	 #, __b
	jne	.L114	 #,
	movl	$1, %eax	 #, iftmp.178_9
	jmp	.L115	 #
.L114:
	movl	$0, %eax	 #, iftmp.178_9
.L115:
	testb	%al, %al	 # iftmp.178_9
 # C:/msys64/mingw64/include/c++/12.2.0/bits/atomic_base.h:486: 	__glibcxx_assert(__b != memory_order_acq_rel);
	.loc 9 486 2
	call	__is_constant_evaluated	 #
	testb	%al, %al	 # _13
	je	.L117	 #,
	cmpl	$4, -16(%rbp)	 #, __b
	jne	.L117	 #,
	movl	$1, %eax	 #, iftmp.180_14
	jmp	.L118	 #
.L117:
	movl	$0, %eax	 #, iftmp.180_14
.L118:
	testb	%al, %al	 # iftmp.180_14
 # C:/msys64/mingw64/include/c++/12.2.0/bits/atomic_base.h:488: 	return __atomic_load_n(&_M_i, int(__m));
	.loc 9 488 25
	movq	-8(%rbp), %rax	 # this, _18
 # C:/msys64/mingw64/include/c++/12.2.0/bits/atomic_base.h:488: 	return __atomic_load_n(&_M_i, int(__m));
	.loc 9 488 24
	movzbl	(%rax), %eax	 #* _18, _19
 # C:/msys64/mingw64/include/c++/12.2.0/bits/atomic_base.h:488: 	return __atomic_load_n(&_M_i, int(__m));
	.loc 9 488 40
	testb	%al, %al	 # _19
	setne	%al	 #, D.237665
.LBE97:
.LBE96:
 # C:/msys64/mingw64/include/c++/12.2.0/atomic:87:     { return _M_base.load(); }
	.loc 10 87 30
	addq	$48, %rsp	 #,
	popq	%rbp	 #
.LCFI160:
	ret	
.LFE9404:
	.seh_endproc
	.section	.text$_ZNSt6thread2idC1Ev,"x"
	.linkonce discard
	.align 2
	.globl	_ZNSt6thread2idC1Ev
	.def	_ZNSt6thread2idC1Ev;	.scl	2;	.type	32;	.endef
	.seh_proc	_ZNSt6thread2idC1Ev
_ZNSt6thread2idC1Ev:
.LFB9603:
	.file 11 "C:/msys64/mingw64/include/c++/12.2.0/bits/std_thread.h"
	.loc 11 85 7
	pushq	%rbp	 #
	.seh_pushreg	%rbp
.LCFI161:
	movq	%rsp, %rbp	 #,
	.seh_setframe	%rbp, 0
.LCFI162:
	.seh_endprologue
	movq	%rcx, 16(%rbp)	 # this, this
.LBB98:
 # C:/msys64/mingw64/include/c++/12.2.0/bits/std_thread.h:85:       id() noexcept : _M_thread() { }
	.loc 11 85 23
	movq	16(%rbp), %rax	 # this, tmp82
	movq	$0, (%rax)	 #, this_2(D)->_M_thread
.LBE98:
 # C:/msys64/mingw64/include/c++/12.2.0/bits/std_thread.h:85:       id() noexcept : _M_thread() { }
	.loc 11 85 37
	nop	
	popq	%rbp	 #
.LCFI163:
	ret	
.LFE9603:
	.seh_endproc
	.section	.text$_ZNSt6thread2idC1Ey,"x"
	.linkonce discard
	.align 2
	.globl	_ZNSt6thread2idC1Ey
	.def	_ZNSt6thread2idC1Ey;	.scl	2;	.type	32;	.endef
	.seh_proc	_ZNSt6thread2idC1Ey
_ZNSt6thread2idC1Ey:
.LFB9606:
	.loc 11 88 7
	pushq	%rbp	 #
	.seh_pushreg	%rbp
.LCFI164:
	movq	%rsp, %rbp	 #,
	.seh_setframe	%rbp, 0
.LCFI165:
	.seh_endprologue
	movq	%rcx, 16(%rbp)	 # this, this
	movq	%rdx, 24(%rbp)	 # __id, __id
.LBB99:
 # C:/msys64/mingw64/include/c++/12.2.0/bits/std_thread.h:88:       id(native_handle_type __id) : _M_thread(__id) { }
	.loc 11 88 37
	movq	16(%rbp), %rax	 # this, tmp82
	movq	24(%rbp), %rdx	 # __id, tmp83
	movq	%rdx, (%rax)	 # tmp83, this_2(D)->_M_thread
.LBE99:
 # C:/msys64/mingw64/include/c++/12.2.0/bits/std_thread.h:88:       id(native_handle_type __id) : _M_thread(__id) { }
	.loc 11 88 55
	nop	
	popq	%rbp	 #
.LCFI166:
	ret	
.LFE9606:
	.seh_endproc
	.section	.text$_ZNSt6threadD1Ev,"x"
	.linkonce discard
	.align 2
	.globl	_ZNSt6threadD1Ev
	.def	_ZNSt6threadD1Ev;	.scl	2;	.type	32;	.endef
	.seh_proc	_ZNSt6threadD1Ev
_ZNSt6threadD1Ev:
.LFB9610:
	.loc 11 148 5
	pushq	%rbp	 #
	.seh_pushreg	%rbp
.LCFI167:
	movq	%rsp, %rbp	 #,
	.seh_setframe	%rbp, 0
.LCFI168:
	subq	$32, %rsp	 #,
	.seh_stackalloc	32
	.seh_endprologue
	movq	%rcx, 16(%rbp)	 # this, this
.LBB100:
 # C:/msys64/mingw64/include/c++/12.2.0/bits/std_thread.h:150:       if (joinable())
	.loc 11 150 19
	movq	16(%rbp), %rax	 # this, tmp83
	movq	%rax, %rcx	 # tmp83,
	call	_ZNKSt6thread8joinableEv	 #
 # C:/msys64/mingw64/include/c++/12.2.0/bits/std_thread.h:150:       if (joinable())
	.loc 11 150 7
	testb	%al, %al	 # retval.176_4
	je	.L126	 #,
.LBB101:
.LBB102:
 # C:/msys64/mingw64/include/c++/12.2.0/x86_64-w64-mingw32/bits/c++config.h:312:     terminate();
	.loc 1 312 14
	call	_ZSt9terminatev	 #
.L126:
.LBE102:
.LBE101:
.LBE100:
 # C:/msys64/mingw64/include/c++/12.2.0/bits/std_thread.h:152:     }
	.loc 11 152 5
	nop	
	addq	$32, %rsp	 #,
	popq	%rbp	 #
.LCFI169:
	ret	
.LFE9610:
	.seh_endproc
	.section	.text$_ZNSt6threadaSEOS_,"x"
	.linkonce discard
	.align 2
	.globl	_ZNSt6threadaSEOS_
	.def	_ZNSt6threadaSEOS_;	.scl	2;	.type	32;	.endef
	.seh_proc	_ZNSt6threadaSEOS_
_ZNSt6threadaSEOS_:
.LFB9614:
	.loc 11 161 13
	pushq	%rbp	 #
	.seh_pushreg	%rbp
.LCFI170:
	movq	%rsp, %rbp	 #,
	.seh_setframe	%rbp, 0
.LCFI171:
	subq	$32, %rsp	 #,
	.seh_stackalloc	32
	.seh_endprologue
	movq	%rcx, 16(%rbp)	 # this, this
	movq	%rdx, 24(%rbp)	 # __t, __t
 # C:/msys64/mingw64/include/c++/12.2.0/bits/std_thread.h:163:       if (joinable())
	.loc 11 163 19
	movq	16(%rbp), %rax	 # this, tmp85
	movq	%rax, %rcx	 # tmp85,
	call	_ZNKSt6thread8joinableEv	 #
 # C:/msys64/mingw64/include/c++/12.2.0/bits/std_thread.h:163:       if (joinable())
	.loc 11 163 7
	testb	%al, %al	 # retval.175_4
	je	.L128	 #,
.LBB103:
.LBB104:
 # C:/msys64/mingw64/include/c++/12.2.0/x86_64-w64-mingw32/bits/c++config.h:312:     terminate();
	.loc 1 312 14
	call	_ZSt9terminatev	 #
.L128:
.LBE104:
.LBE103:
 # C:/msys64/mingw64/include/c++/12.2.0/bits/std_thread.h:165:       swap(__t);
	.loc 11 165 11
	movq	24(%rbp), %rdx	 # __t, tmp86
	movq	16(%rbp), %rax	 # this, tmp87
	movq	%rax, %rcx	 # tmp87,
	call	_ZNSt6thread4swapERS_	 #
 # C:/msys64/mingw64/include/c++/12.2.0/bits/std_thread.h:166:       return *this;
	.loc 11 166 15
	movq	16(%rbp), %rax	 # this, _7
 # C:/msys64/mingw64/include/c++/12.2.0/bits/std_thread.h:167:     }
	.loc 11 167 5
	addq	$32, %rsp	 #,
	popq	%rbp	 #
.LCFI172:
	ret	
.LFE9614:
	.seh_endproc
	.section	.text$_ZNSt6thread4swapERS_,"x"
	.linkonce discard
	.align 2
	.globl	_ZNSt6thread4swapERS_
	.def	_ZNSt6thread4swapERS_;	.scl	2;	.type	32;	.endef
	.seh_proc	_ZNSt6thread4swapERS_
_ZNSt6thread4swapERS_:
.LFB9615:
	.loc 11 170 5
	pushq	%rbp	 #
	.seh_pushreg	%rbp
.LCFI173:
	movq	%rsp, %rbp	 #,
	.seh_setframe	%rbp, 0
.LCFI174:
	subq	$32, %rsp	 #,
	.seh_stackalloc	32
	.seh_endprologue
	movq	%rcx, 16(%rbp)	 # this, this
	movq	%rdx, 24(%rbp)	 # __t, __t
 # C:/msys64/mingw64/include/c++/12.2.0/bits/std_thread.h:171:     { std::swap(_M_id, __t._M_id); }
	.loc 11 171 28
	movq	24(%rbp), %rdx	 # __t, _1
 # C:/msys64/mingw64/include/c++/12.2.0/bits/std_thread.h:171:     { std::swap(_M_id, __t._M_id); }
	.loc 11 171 17
	movq	16(%rbp), %rax	 # this, _2
 # C:/msys64/mingw64/include/c++/12.2.0/bits/std_thread.h:171:     { std::swap(_M_id, __t._M_id); }
	.loc 11 171 16
	movq	%rax, %rcx	 # _2,
	call	_ZSt4swapINSt6thread2idEENSt9enable_ifIXsrSt6__and_IJSt6__not_ISt15__is_tuple_likeIT_EESt21is_move_constructibleIS6_ESt18is_move_assignableIS6_EEE5valueEvE4typeERS6_SG_	 #
 # C:/msys64/mingw64/include/c++/12.2.0/bits/std_thread.h:171:     { std::swap(_M_id, __t._M_id); }
	.loc 11 171 36
	nop	
	addq	$32, %rsp	 #,
	popq	%rbp	 #
.LCFI175:
	ret	
.LFE9615:
	.seh_endproc
	.section	.text$_ZNKSt6thread8joinableEv,"x"
	.linkonce discard
	.align 2
	.globl	_ZNKSt6thread8joinableEv
	.def	_ZNKSt6thread8joinableEv;	.scl	2;	.type	32;	.endef
	.seh_proc	_ZNKSt6thread8joinableEv
_ZNKSt6thread8joinableEv:
.LFB9617:
	.loc 11 174 5
	pushq	%rbp	 #
	.seh_pushreg	%rbp
.LCFI176:
	movq	%rsp, %rbp	 #,
	.seh_setframe	%rbp, 0
.LCFI177:
	subq	$48, %rsp	 #,
	.seh_stackalloc	48
	.seh_endprologue
	movq	%rcx, 16(%rbp)	 # this, this
 # C:/msys64/mingw64/include/c++/12.2.0/bits/std_thread.h:175:     { return !(_M_id == id()); }
	.loc 11 175 22
	leaq	-8(%rbp), %rax	 #, tmp85
	movq	%rax, %rcx	 # tmp85,
	call	_ZNSt6thread2idC1Ev	 #
	movq	-8(%rbp), %rdx	 # D.170630, tmp86
	movq	16(%rbp), %rax	 # this, tmp87
	movq	(%rax), %rax	 # this_4(D)->_M_id, tmp88
	movq	%rax, %rcx	 # tmp88,
	call	_ZSteqNSt6thread2idES0_	 #
 # C:/msys64/mingw64/include/c++/12.2.0/bits/std_thread.h:175:     { return !(_M_id == id()); }
	.loc 11 175 29
	xorl	$1, %eax	 #, _6
 # C:/msys64/mingw64/include/c++/12.2.0/bits/std_thread.h:175:     { return !(_M_id == id()); }
	.loc 11 175 32
	addq	$48, %rsp	 #,
	popq	%rbp	 #
.LCFI178:
	ret	
.LFE9617:
	.seh_endproc
	.section	.text$_ZNKSt6thread6get_idEv,"x"
	.linkonce discard
	.align 2
	.globl	_ZNKSt6thread6get_idEv
	.def	_ZNKSt6thread6get_idEv;	.scl	2;	.type	32;	.endef
	.seh_proc	_ZNKSt6thread6get_idEv
_ZNKSt6thread6get_idEv:
.LFB9618:
	.loc 11 184 5
	pushq	%rbp	 #
	.seh_pushreg	%rbp
.LCFI179:
	movq	%rsp, %rbp	 #,
	.seh_setframe	%rbp, 0
.LCFI180:
	.seh_endprologue
	movq	%rcx, 16(%rbp)	 # this, this
 # C:/msys64/mingw64/include/c++/12.2.0/bits/std_thread.h:185:     { return _M_id; }
	.loc 11 185 14
	movq	16(%rbp), %rax	 # this, tmp84
	movq	(%rax), %rax	 # this_2(D)->_M_id, D.236858
 # C:/msys64/mingw64/include/c++/12.2.0/bits/std_thread.h:185:     { return _M_id; }
	.loc 11 185 21
	popq	%rbp	 #
.LCFI181:
	ret	
.LFE9618:
	.seh_endproc
	.section	.text$_ZSteqNSt6thread2idES0_,"x"
	.linkonce discard
	.globl	_ZSteqNSt6thread2idES0_
	.def	_ZSteqNSt6thread2idES0_;	.scl	2;	.type	32;	.endef
	.seh_proc	_ZSteqNSt6thread2idES0_
_ZSteqNSt6thread2idES0_:
.LFB9625:
	.loc 11 281 3
	pushq	%rbp	 #
	.seh_pushreg	%rbp
.LCFI182:
	movq	%rsp, %rbp	 #,
	.seh_setframe	%rbp, 0
.LCFI183:
	.seh_endprologue
	movq	%rcx, 16(%rbp)	 # __x, __x
	movq	%rdx, 24(%rbp)	 # __y, __y
 # C:/msys64/mingw64/include/c++/12.2.0/bits/std_thread.h:286:     return __x._M_thread == __y._M_thread;
	.loc 11 286 16
	movq	16(%rbp), %rdx	 # __x._M_thread, _1
 # C:/msys64/mingw64/include/c++/12.2.0/bits/std_thread.h:286:     return __x._M_thread == __y._M_thread;
	.loc 11 286 33
	movq	24(%rbp), %rax	 # __y._M_thread, _2
	cmpq	%rax, %rdx	 # _2, _1
	sete	%al	 #, _4
 # C:/msys64/mingw64/include/c++/12.2.0/bits/std_thread.h:287:   }
	.loc 11 287 3
	popq	%rbp	 #
.LCFI184:
	ret	
.LFE9625:
	.seh_endproc
	.section	.text$_ZNKSt4hashINSt6thread2idEEclERKS1_,"x"
	.linkonce discard
	.align 2
	.globl	_ZNKSt4hashINSt6thread2idEEclERKS1_
	.def	_ZNKSt4hashINSt6thread2idEEclERKS1_;	.scl	2;	.type	32;	.endef
	.seh_proc	_ZNKSt4hashINSt6thread2idEEclERKS1_
_ZNKSt4hashINSt6thread2idEEclERKS1_:
.LFB9626:
	.loc 11 298 7
	pushq	%rbp	 #
	.seh_pushreg	%rbp
.LCFI185:
	movq	%rsp, %rbp	 #,
	.seh_setframe	%rbp, 0
.LCFI186:
	subq	$32, %rsp	 #,
	.seh_stackalloc	32
	.seh_endprologue
	movq	%rcx, 16(%rbp)	 # this, this
	movq	%rdx, 24(%rbp)	 # __id, __id
 # C:/msys64/mingw64/include/c++/12.2.0/bits/std_thread.h:299:       { return std::_Hash_impl::hash(__id._M_thread); }
	.loc 11 299 43
	movq	24(%rbp), %rax	 # __id, _1
 # C:/msys64/mingw64/include/c++/12.2.0/bits/std_thread.h:299:       { return std::_Hash_impl::hash(__id._M_thread); }
	.loc 11 299 37
	movq	%rax, %rcx	 # _1,
	call	_ZNSt10_Hash_impl4hashIyEEyRKT_	 #
 # C:/msys64/mingw64/include/c++/12.2.0/bits/std_thread.h:299:       { return std::_Hash_impl::hash(__id._M_thread); }
	.loc 11 299 55
	addq	$32, %rsp	 #,
	popq	%rbp	 #
.LCFI187:
	ret	
.LFE9626:
	.seh_handler	__gxx_personality_seh0, @unwind, @except
	.seh_handlerdata
.LLSDA9626:
	.byte	0xff
	.byte	0xff
	.byte	0x1
	.uleb128 .LLSDACSE9626-.LLSDACSB9626
.LLSDACSB9626:
.LLSDACSE9626:
	.section	.text$_ZNKSt4hashINSt6thread2idEEclERKS1_,"x"
	.linkonce discard
	.seh_endproc
	.section	.text$_ZNSt11this_thread6get_idEv,"x"
	.linkonce discard
	.globl	_ZNSt11this_thread6get_idEv
	.def	_ZNSt11this_thread6get_idEv;	.scl	2;	.type	32;	.endef
	.seh_proc	_ZNSt11this_thread6get_idEv
_ZNSt11this_thread6get_idEv:
.LFB9627:
	.loc 11 307 5
	pushq	%rbp	 #
	.seh_pushreg	%rbp
.LCFI188:
	movq	%rsp, %rbp	 #,
	.seh_setframe	%rbp, 0
.LCFI189:
	subq	$48, %rsp	 #,
	.seh_stackalloc	48
	.seh_endprologue
 # C:/msys64/mingw64/include/c++/12.2.0/bits/std_thread.h:313:       return thread::id(__gthread_self());
	.loc 11 313 22
	call	_ZL14__gthread_selfv	 #
	movq	%rax, %rdx	 #, _1
	leaq	-8(%rbp), %rax	 #, tmp85
	movq	%rax, %rcx	 # tmp85,
	call	_ZNSt6thread2idC1Ey	 #
 # C:/msys64/mingw64/include/c++/12.2.0/bits/std_thread.h:313:       return thread::id(__gthread_self());
	.loc 11 313 41
	movq	-8(%rbp), %rax	 # D.170680, D.236165
 # C:/msys64/mingw64/include/c++/12.2.0/bits/std_thread.h:315:     }
	.loc 11 315 5
	addq	$48, %rsp	 #,
	popq	%rbp	 #
.LCFI190:
	ret	
.LFE9627:
	.seh_handler	__gxx_personality_seh0, @unwind, @except
	.seh_handlerdata
.LLSDA9627:
	.byte	0xff
	.byte	0xff
	.byte	0x1
	.uleb128 .LLSDACSE9627-.LLSDACSB9627
.LLSDACSB9627:
.LLSDACSE9627:
	.section	.text$_ZNSt11this_thread6get_idEv,"x"
	.linkonce discard
	.seh_endproc
	.section	.text$_ZNKSt6chrono8durationIxSt5ratioILx1ELx1000000000EEE5countEv,"x"
	.linkonce discard
	.align 2
	.globl	_ZNKSt6chrono8durationIxSt5ratioILx1ELx1000000000EEE5countEv
	.def	_ZNKSt6chrono8durationIxSt5ratioILx1ELx1000000000EEE5countEv;	.scl	2;	.type	32;	.endef
	.seh_proc	_ZNKSt6chrono8durationIxSt5ratioILx1ELx1000000000EEE5countEv
_ZNKSt6chrono8durationIxSt5ratioILx1ELx1000000000EEE5countEv:
.LFB9701:
	.file 12 "C:/msys64/mingw64/include/c++/12.2.0/bits/chrono.h"
	.loc 12 521 2
	pushq	%rbp	 #
	.seh_pushreg	%rbp
.LCFI191:
	movq	%rsp, %rbp	 #,
	.seh_setframe	%rbp, 0
.LCFI192:
	.seh_endprologue
	movq	%rcx, 16(%rbp)	 # this, this
 # C:/msys64/mingw64/include/c++/12.2.0/bits/chrono.h:522: 	{ return __r; }
	.loc 12 522 11
	movq	16(%rbp), %rax	 # this, tmp84
	movq	(%rax), %rax	 # this_2(D)->__r, _3
 # C:/msys64/mingw64/include/c++/12.2.0/bits/chrono.h:522: 	{ return __r; }
	.loc 12 522 16
	popq	%rbp	 #
.LCFI193:
	ret	
.LFE9701:
	.seh_endproc
	.section	.text$_ZNSt6chronossIxSt5ratioILx1ELx1000000000EExS2_EEDaRKNS_8durationIT_T0_EERKNS3_IT1_T2_EE,"x"
	.linkonce discard
	.globl	_ZNSt6chronossIxSt5ratioILx1ELx1000000000EExS2_EEDaRKNS_8durationIT_T0_EERKNS3_IT1_T2_EE
	.def	_ZNSt6chronossIxSt5ratioILx1ELx1000000000EExS2_EEDaRKNS_8durationIT_T0_EERKNS3_IT1_T2_EE;	.scl	2;	.type	32;	.endef
	.seh_proc	_ZNSt6chronossIxSt5ratioILx1ELx1000000000EExS2_EEDaRKNS_8durationIT_T0_EERKNS3_IT1_T2_EE
_ZNSt6chronossIxSt5ratioILx1ELx1000000000EExS2_EEDaRKNS_8durationIT_T0_EERKNS3_IT1_T2_EE:
.LFB9700:
	.loc 12 770 7
	pushq	%rbp	 #
	.seh_pushreg	%rbp
.LCFI194:
	pushq	%rbx	 #
	.seh_pushreg	%rbx
.LCFI195:
	subq	$56, %rsp	 #,
	.seh_stackalloc	56
.LCFI196:
	leaq	48(%rsp), %rbp	 #,
	.seh_setframe	%rbp, 48
.LCFI197:
	.seh_endprologue
	movq	%rcx, 32(%rbp)	 # __lhs, __lhs
	movq	%rdx, 40(%rbp)	 # __rhs, __rhs
 # C:/msys64/mingw64/include/c++/12.2.0/bits/chrono.h:775: 	return __ct(__lhs).count() <=> __ct(__rhs).count();
	.loc 12 775 9
	movq	32(%rbp), %rax	 # __lhs, tmp86
	movq	(%rax), %rax	 # *__lhs_3(D), tmp87
	movq	%rax, -16(%rbp)	 # tmp87, D.173156
 # C:/msys64/mingw64/include/c++/12.2.0/bits/chrono.h:775: 	return __ct(__lhs).count() <=> __ct(__rhs).count();
	.loc 12 775 26
	leaq	-16(%rbp), %rax	 #, tmp88
	movq	%rax, %rcx	 # tmp88,
	call	_ZNKSt6chrono8durationIxSt5ratioILx1ELx1000000000EEE5countEv	 #
	movq	%rax, %rbx	 #, _6
 # C:/msys64/mingw64/include/c++/12.2.0/bits/chrono.h:775: 	return __ct(__lhs).count() <=> __ct(__rhs).count();
	.loc 12 775 33
	movq	40(%rbp), %rax	 # __rhs, tmp89
	movq	(%rax), %rax	 # *__rhs_7(D), tmp90
	movq	%rax, -8(%rbp)	 # tmp90, D.173157
 # C:/msys64/mingw64/include/c++/12.2.0/bits/chrono.h:775: 	return __ct(__lhs).count() <=> __ct(__rhs).count();
	.loc 12 775 50
	leaq	-8(%rbp), %rax	 #, tmp91
	movq	%rax, %rcx	 # tmp91,
	call	_ZNKSt6chrono8durationIxSt5ratioILx1ELx1000000000EEE5countEv	 #
 # C:/msys64/mingw64/include/c++/12.2.0/bits/chrono.h:775: 	return __ct(__lhs).count() <=> __ct(__rhs).count();
	.loc 12 775 51
	cmpq	%rax, %rbx	 # _10, _6
	je	.L144	 #,
 # C:/msys64/mingw64/include/c++/12.2.0/bits/chrono.h:775: 	return __ct(__lhs).count() <=> __ct(__rhs).count();
	.loc 12 775 51 is_stmt 0 discriminator 1
	cmpq	%rax, %rbx	 # _10, _6
	jge	.L145	 #,
 # C:/msys64/mingw64/include/c++/12.2.0/bits/chrono.h:775: 	return __ct(__lhs).count() <=> __ct(__rhs).count();
	.loc 12 775 51 discriminator 3
	movl	$-1, %eax	 #, D.236661
	jmp	.L147	 #
.L145:
 # C:/msys64/mingw64/include/c++/12.2.0/bits/chrono.h:775: 	return __ct(__lhs).count() <=> __ct(__rhs).count();
	.loc 12 775 51 discriminator 4
	movl	$1, %eax	 #, D.236661
	jmp	.L147	 #
.L144:
 # C:/msys64/mingw64/include/c++/12.2.0/bits/chrono.h:775: 	return __ct(__lhs).count() <=> __ct(__rhs).count();
	.loc 12 775 51 discriminator 2
	movl	$0, %eax	 #, D.236661
.L147:
 # C:/msys64/mingw64/include/c++/12.2.0/bits/chrono.h:776:       }
	.loc 12 776 7 is_stmt 1 discriminator 6
	addq	$56, %rsp	 #,
	popq	%rbx	 #
.LCFI198:
	popq	%rbp	 #
.LCFI199:
	ret	
.LFE9700:
	.seh_endproc
	.section	.text$_ZNSt6chrono8durationIxSt5ratioILx1ELx1000000000EEE4zeroEv,"x"
	.linkonce discard
	.globl	_ZNSt6chrono8durationIxSt5ratioILx1ELx1000000000EEE4zeroEv
	.def	_ZNSt6chrono8durationIxSt5ratioILx1ELx1000000000EEE4zeroEv;	.scl	2;	.type	32;	.endef
	.seh_proc	_ZNSt6chrono8durationIxSt5ratioILx1ELx1000000000EEE4zeroEv
_ZNSt6chrono8durationIxSt5ratioILx1ELx1000000000EEE4zeroEv:
.LFB9703:
	.loc 12 607 2
	pushq	%rbp	 #
	.seh_pushreg	%rbp
.LCFI200:
	movq	%rsp, %rbp	 #,
	.seh_setframe	%rbp, 0
.LCFI201:
	subq	$48, %rsp	 #,
	.seh_stackalloc	48
	.seh_endprologue
 # C:/msys64/mingw64/include/c++/12.2.0/bits/chrono.h:608: 	{ return duration(duration_values<rep>::zero()); }
	.loc 12 608 46
	call	_ZNSt6chrono15duration_valuesIxE4zeroEv	 #
	movq	%rax, -8(%rbp)	 # _1, D.173282
 # C:/msys64/mingw64/include/c++/12.2.0/bits/chrono.h:608: 	{ return duration(duration_values<rep>::zero()); }
	.loc 12 608 11
	leaq	-8(%rbp), %rdx	 #, tmp85
	leaq	-16(%rbp), %rax	 #, tmp86
	movq	%rax, %rcx	 # tmp86,
	call	_ZNSt6chrono8durationIxSt5ratioILx1ELx1000000000EEEC1IxvEERKT_	 #
 # C:/msys64/mingw64/include/c++/12.2.0/bits/chrono.h:608: 	{ return duration(duration_values<rep>::zero()); }
	.loc 12 608 48
	movq	-16(%rbp), %rax	 # D.173283, D.236655
 # C:/msys64/mingw64/include/c++/12.2.0/bits/chrono.h:608: 	{ return duration(duration_values<rep>::zero()); }
	.loc 12 608 51
	addq	$48, %rsp	 #,
	popq	%rbp	 #
.LCFI202:
	ret	
.LFE9703:
	.seh_endproc
	.section	.text$_ZNSt6chrono8durationIxSt5ratioILx1ELx1000000000EEEC1IxvEERKT_,"x"
	.linkonce discard
	.align 2
	.globl	_ZNSt6chrono8durationIxSt5ratioILx1ELx1000000000EEEC1IxvEERKT_
	.def	_ZNSt6chrono8durationIxSt5ratioILx1ELx1000000000EEEC1IxvEERKT_;	.scl	2;	.type	32;	.endef
	.seh_proc	_ZNSt6chrono8durationIxSt5ratioILx1ELx1000000000EEEC1IxvEERKT_
_ZNSt6chrono8durationIxSt5ratioILx1ELx1000000000EEEC1IxvEERKT_:
.LFB9707:
	.loc 12 505 23
	pushq	%rbp	 #
	.seh_pushreg	%rbp
.LCFI203:
	movq	%rsp, %rbp	 #,
	.seh_setframe	%rbp, 0
.LCFI204:
	.seh_endprologue
	movq	%rcx, 16(%rbp)	 # this, this
	movq	%rdx, 24(%rbp)	 # __rep, __rep
.LBB105:
 # C:/msys64/mingw64/include/c++/12.2.0/bits/chrono.h:506: 	  : __r(static_cast<rep>(__rep)) { }
	.loc 12 506 10
	movq	24(%rbp), %rax	 # __rep, tmp83
	movq	(%rax), %rdx	 # *__rep_5(D), _1
 # C:/msys64/mingw64/include/c++/12.2.0/bits/chrono.h:506: 	  : __r(static_cast<rep>(__rep)) { }
	.loc 12 506 6
	movq	16(%rbp), %rax	 # this, tmp84
	movq	%rdx, (%rax)	 # _1, this_3(D)->__r
.LBE105:
 # C:/msys64/mingw64/include/c++/12.2.0/bits/chrono.h:506: 	  : __r(static_cast<rep>(__rep)) { }
	.loc 12 506 37
	nop	
	popq	%rbp	 #
.LCFI205:
	ret	
.LFE9707:
	.seh_endproc
	.section	.text$_ZNSt6chrono15duration_valuesIxE4zeroEv,"x"
	.linkonce discard
	.globl	_ZNSt6chrono15duration_valuesIxE4zeroEv
	.def	_ZNSt6chrono15duration_valuesIxE4zeroEv;	.scl	2;	.type	32;	.endef
	.seh_proc	_ZNSt6chrono15duration_valuesIxE4zeroEv
_ZNSt6chrono15duration_valuesIxE4zeroEv:
.LFB9708:
	.loc 12 416 2
	pushq	%rbp	 #
	.seh_pushreg	%rbp
.LCFI206:
	movq	%rsp, %rbp	 #,
	.seh_setframe	%rbp, 0
.LCFI207:
	.seh_endprologue
 # C:/msys64/mingw64/include/c++/12.2.0/bits/chrono.h:417: 	{ return _Rep(0); }
	.loc 12 417 17
	movl	$0, %eax	 #, _1
 # C:/msys64/mingw64/include/c++/12.2.0/bits/chrono.h:417: 	{ return _Rep(0); }
	.loc 12 417 20
	popq	%rbp	 #
.LCFI208:
	ret	
.LFE9708:
	.seh_endproc
	.section	.text$_ZNSt6chrono8durationIxSt5ratioILx1ELx1EEEC1IxvEERKT_,"x"
	.linkonce discard
	.align 2
	.globl	_ZNSt6chrono8durationIxSt5ratioILx1ELx1EEEC1IxvEERKT_
	.def	_ZNSt6chrono8durationIxSt5ratioILx1ELx1EEEC1IxvEERKT_;	.scl	2;	.type	32;	.endef
	.seh_proc	_ZNSt6chrono8durationIxSt5ratioILx1ELx1EEEC1IxvEERKT_
_ZNSt6chrono8durationIxSt5ratioILx1ELx1EEEC1IxvEERKT_:
.LFB9727:
	.loc 12 505 23
	pushq	%rbp	 #
	.seh_pushreg	%rbp
.LCFI209:
	movq	%rsp, %rbp	 #,
	.seh_setframe	%rbp, 0
.LCFI210:
	.seh_endprologue
	movq	%rcx, 16(%rbp)	 # this, this
	movq	%rdx, 24(%rbp)	 # __rep, __rep
.LBB106:
 # C:/msys64/mingw64/include/c++/12.2.0/bits/chrono.h:506: 	  : __r(static_cast<rep>(__rep)) { }
	.loc 12 506 10
	movq	24(%rbp), %rax	 # __rep, tmp83
	movq	(%rax), %rdx	 # *__rep_5(D), _1
 # C:/msys64/mingw64/include/c++/12.2.0/bits/chrono.h:506: 	  : __r(static_cast<rep>(__rep)) { }
	.loc 12 506 6
	movq	16(%rbp), %rax	 # this, tmp84
	movq	%rdx, (%rax)	 # _1, this_3(D)->__r
.LBE106:
 # C:/msys64/mingw64/include/c++/12.2.0/bits/chrono.h:506: 	  : __r(static_cast<rep>(__rep)) { }
	.loc 12 506 37
	nop	
	popq	%rbp	 #
.LCFI211:
	ret	
.LFE9727:
	.seh_endproc
	.section	.text$_ZNSt6chrono8durationIxSt5ratioILx1ELx1000000000EEEC1IxS1_ILx1ELx1000EEvEERKNS0_IT_T0_EE,"x"
	.linkonce discard
	.align 2
	.globl	_ZNSt6chrono8durationIxSt5ratioILx1ELx1000000000EEEC1IxS1_ILx1ELx1000EEvEERKNS0_IT_T0_EE
	.def	_ZNSt6chrono8durationIxSt5ratioILx1ELx1000000000EEEC1IxS1_ILx1ELx1000EEvEERKNS0_IT_T0_EE;	.scl	2;	.type	32;	.endef
	.seh_proc	_ZNSt6chrono8durationIxSt5ratioILx1ELx1000000000EEEC1IxS1_ILx1ELx1000EEvEERKNS0_IT_T0_EE
_ZNSt6chrono8durationIxSt5ratioILx1ELx1000000000EEEC1IxS1_ILx1ELx1000EEvEERKNS0_IT_T0_EE:
.LFB9747:
	.loc 12 513 14
	pushq	%rbp	 #
	.seh_pushreg	%rbp
.LCFI212:
	movq	%rsp, %rbp	 #,
	.seh_setframe	%rbp, 0
.LCFI213:
	subq	$48, %rsp	 #,
	.seh_stackalloc	48
	.seh_endprologue
	movq	%rcx, 16(%rbp)	 # this, this
	movq	%rdx, 24(%rbp)	 # __d, __d
.LBB107:
 # C:/msys64/mingw64/include/c++/12.2.0/bits/chrono.h:514: 	  : __r(duration_cast<duration>(__d).count()) { }
	.loc 12 514 33
	movq	24(%rbp), %rax	 # __d, tmp83
	movq	%rax, %rcx	 # tmp83,
	call	_ZNSt6chrono13duration_castINS_8durationIxSt5ratioILx1ELx1000000000EEEExS2_ILx1ELx1000EEEENSt9enable_ifIXsrNS_13__is_durationIT_EE5valueES8_E4typeERKNS1_IT0_T1_EE	 #
	movq	%rax, -8(%rbp)	 # tmp85, D.176570
 # C:/msys64/mingw64/include/c++/12.2.0/bits/chrono.h:514: 	  : __r(duration_cast<duration>(__d).count()) { }
	.loc 12 514 44
	leaq	-8(%rbp), %rax	 #, tmp86
	movq	%rax, %rcx	 # tmp86,
	call	_ZNKSt6chrono8durationIxSt5ratioILx1ELx1000000000EEE5countEv	 #
 # C:/msys64/mingw64/include/c++/12.2.0/bits/chrono.h:514: 	  : __r(duration_cast<duration>(__d).count()) { }
	.loc 12 514 6
	movq	16(%rbp), %rdx	 # this, tmp87
	movq	%rax, (%rdx)	 # _1, this_3(D)->__r
.LBE107:
 # C:/msys64/mingw64/include/c++/12.2.0/bits/chrono.h:514: 	  : __r(duration_cast<duration>(__d).count()) { }
	.loc 12 514 50
	nop	
	addq	$48, %rsp	 #,
	popq	%rbp	 #
.LCFI214:
	ret	
.LFE9747:
	.seh_endproc
	.section	.text$_ZNSt6chronossIxSt5ratioILx1ELx1000000000EExS1_ILx1ELx1000EEEEDaRKNS_8durationIT_T0_EERKNS4_IT1_T2_EE,"x"
	.linkonce discard
	.globl	_ZNSt6chronossIxSt5ratioILx1ELx1000000000EExS1_ILx1ELx1000EEEEDaRKNS_8durationIT_T0_EERKNS4_IT1_T2_EE
	.def	_ZNSt6chronossIxSt5ratioILx1ELx1000000000EExS1_ILx1ELx1000EEEEDaRKNS_8durationIT_T0_EERKNS4_IT1_T2_EE;	.scl	2;	.type	32;	.endef
	.seh_proc	_ZNSt6chronossIxSt5ratioILx1ELx1000000000EExS1_ILx1ELx1000EEEEDaRKNS_8durationIT_T0_EERKNS4_IT1_T2_EE
_ZNSt6chronossIxSt5ratioILx1ELx1000000000EExS1_ILx1ELx1000EEEEDaRKNS_8durationIT_T0_EERKNS4_IT1_T2_EE:
.LFB9743:
	.loc 12 770 7
	pushq	%rbp	 #
	.seh_pushreg	%rbp
.LCFI215:
	pushq	%rbx	 #
	.seh_pushreg	%rbx
.LCFI216:
	subq	$56, %rsp	 #,
	.seh_stackalloc	56
.LCFI217:
	leaq	48(%rsp), %rbp	 #,
	.seh_setframe	%rbp, 48
.LCFI218:
	.seh_endprologue
	movq	%rcx, 32(%rbp)	 # __lhs, __lhs
	movq	%rdx, 40(%rbp)	 # __rhs, __rhs
 # C:/msys64/mingw64/include/c++/12.2.0/bits/chrono.h:775: 	return __ct(__lhs).count() <=> __ct(__rhs).count();
	.loc 12 775 9
	movq	32(%rbp), %rax	 # __lhs, tmp86
	movq	(%rax), %rax	 # *__lhs_3(D), tmp87
	movq	%rax, -16(%rbp)	 # tmp87, D.176461
 # C:/msys64/mingw64/include/c++/12.2.0/bits/chrono.h:775: 	return __ct(__lhs).count() <=> __ct(__rhs).count();
	.loc 12 775 26
	leaq	-16(%rbp), %rax	 #, tmp88
	movq	%rax, %rcx	 # tmp88,
	call	_ZNKSt6chrono8durationIxSt5ratioILx1ELx1000000000EEE5countEv	 #
	movq	%rax, %rbx	 #, _6
 # C:/msys64/mingw64/include/c++/12.2.0/bits/chrono.h:775: 	return __ct(__lhs).count() <=> __ct(__rhs).count();
	.loc 12 775 33
	movq	40(%rbp), %rdx	 # __rhs, tmp89
	leaq	-8(%rbp), %rax	 #, tmp90
	movq	%rax, %rcx	 # tmp90,
	call	_ZNSt6chrono8durationIxSt5ratioILx1ELx1000000000EEEC1IxS1_ILx1ELx1000EEvEERKNS0_IT_T0_EE	 #
 # C:/msys64/mingw64/include/c++/12.2.0/bits/chrono.h:775: 	return __ct(__lhs).count() <=> __ct(__rhs).count();
	.loc 12 775 50
	leaq	-8(%rbp), %rax	 #, tmp91
	movq	%rax, %rcx	 # tmp91,
	call	_ZNKSt6chrono8durationIxSt5ratioILx1ELx1000000000EEE5countEv	 #
 # C:/msys64/mingw64/include/c++/12.2.0/bits/chrono.h:775: 	return __ct(__lhs).count() <=> __ct(__rhs).count();
	.loc 12 775 51
	cmpq	%rax, %rbx	 # _10, _6
	je	.L156	 #,
 # C:/msys64/mingw64/include/c++/12.2.0/bits/chrono.h:775: 	return __ct(__lhs).count() <=> __ct(__rhs).count();
	.loc 12 775 51 is_stmt 0 discriminator 3
	cmpq	%rax, %rbx	 # _10, _6
	jge	.L157	 #,
 # C:/msys64/mingw64/include/c++/12.2.0/bits/chrono.h:775: 	return __ct(__lhs).count() <=> __ct(__rhs).count();
	.loc 12 775 51 discriminator 5
	movl	$-1, %eax	 #, D.236602
	jmp	.L159	 #
.L157:
 # C:/msys64/mingw64/include/c++/12.2.0/bits/chrono.h:775: 	return __ct(__lhs).count() <=> __ct(__rhs).count();
	.loc 12 775 51 discriminator 6
	movl	$1, %eax	 #, D.236602
	jmp	.L159	 #
.L156:
 # C:/msys64/mingw64/include/c++/12.2.0/bits/chrono.h:775: 	return __ct(__lhs).count() <=> __ct(__rhs).count();
	.loc 12 775 51 discriminator 4
	movl	$0, %eax	 #, D.236602
.L159:
 # C:/msys64/mingw64/include/c++/12.2.0/bits/chrono.h:776:       }
	.loc 12 776 7 is_stmt 1 discriminator 8
	addq	$56, %rsp	 #,
	popq	%rbx	 #
.LCFI219:
	popq	%rbp	 #
.LCFI220:
	ret	
.LFE9743:
	.seh_endproc
	.section	.text$_ZNSt6threadC1Ev,"x"
	.linkonce discard
	.align 2
	.globl	_ZNSt6threadC1Ev
	.def	_ZNSt6threadC1Ev;	.scl	2;	.type	32;	.endef
	.seh_proc	_ZNSt6threadC1Ev
_ZNSt6threadC1Ev:
.LFB9886:
	.loc 11 120 5
	pushq	%rbp	 #
	.seh_pushreg	%rbp
.LCFI221:
	movq	%rsp, %rbp	 #,
	.seh_setframe	%rbp, 0
.LCFI222:
	subq	$32, %rsp	 #,
	.seh_stackalloc	32
	.seh_endprologue
	movq	%rcx, 16(%rbp)	 # this, this
.LBB108:
 # C:/msys64/mingw64/include/c++/12.2.0/bits/std_thread.h:120:     thread() noexcept = default;
	.loc 11 120 5
	movq	16(%rbp), %rax	 # this, _1
	movq	%rax, %rcx	 # _1,
	call	_ZNSt6thread2idC1Ev	 #
.LBE108:
	nop	
	addq	$32, %rsp	 #,
	popq	%rbp	 #
.LCFI223:
	ret	
.LFE9886:
	.seh_endproc
	.section	.text$_ZN17ID2D1RenderTarget21CreateSolidColorBrushERK14_D3DCOLORVALUEPP20ID2D1SolidColorBrush,"x"
	.linkonce discard
	.align 2
	.globl	_ZN17ID2D1RenderTarget21CreateSolidColorBrushERK14_D3DCOLORVALUEPP20ID2D1SolidColorBrush
	.def	_ZN17ID2D1RenderTarget21CreateSolidColorBrushERK14_D3DCOLORVALUEPP20ID2D1SolidColorBrush;	.scl	2;	.type	32;	.endef
	.seh_proc	_ZN17ID2D1RenderTarget21CreateSolidColorBrushERK14_D3DCOLORVALUEPP20ID2D1SolidColorBrush
_ZN17ID2D1RenderTarget21CreateSolidColorBrushERK14_D3DCOLORVALUEPP20ID2D1SolidColorBrush:
.LFB10616:
	.file 13 "C:/msys64/mingw64/include/d2d1.h"
	.loc 13 815 13
	pushq	%rbp	 #
	.seh_pushreg	%rbp
.LCFI224:
	movq	%rsp, %rbp	 #,
	.seh_setframe	%rbp, 0
.LCFI225:
	subq	$32, %rsp	 #,
	.seh_stackalloc	32
	.seh_endprologue
	movq	%rcx, 16(%rbp)	 # this, this
	movq	%rdx, 24(%rbp)	 # color, color
	movq	%r8, 32(%rbp)	 # solidColorBrush, solidColorBrush
 # C:/msys64/mingw64/include/d2d1.h:816:         return CreateSolidColorBrush(&color, NULL, solidColorBrush);
	.loc 13 816 37
	movq	16(%rbp), %rax	 # this, tmp87
	movq	(%rax), %rax	 # this_5(D)->D.200640.D.199868._vptr.IUnknown, _1
	addq	$64, %rax	 #, _2
	movq	(%rax), %r10	 # *_2, _3
	movq	32(%rbp), %rcx	 # solidColorBrush, tmp88
	movq	24(%rbp), %rdx	 # color, tmp89
	movq	16(%rbp), %rax	 # this, tmp90
	movq	%rcx, %r9	 # tmp88,
	movl	$0, %r8d	 #,
	movq	%rax, %rcx	 # tmp90,
	call	*%r10	 # _3
.LVL1:
 # C:/msys64/mingw64/include/d2d1.h:817:     }
	.loc 13 817 5
	addq	$32, %rsp	 #,
	popq	%rbp	 #
.LCFI226:
	ret	
.LFE10616:
	.seh_endproc
	.section	.text$_ZN17ID2D1RenderTarget28CreateCompatibleRenderTargetEPP23ID2D1BitmapRenderTarget,"x"
	.linkonce discard
	.align 2
	.globl	_ZN17ID2D1RenderTarget28CreateCompatibleRenderTargetEPP23ID2D1BitmapRenderTarget
	.def	_ZN17ID2D1RenderTarget28CreateCompatibleRenderTargetEPP23ID2D1BitmapRenderTarget;	.scl	2;	.type	32;	.endef
	.seh_proc	_ZN17ID2D1RenderTarget28CreateCompatibleRenderTargetEPP23ID2D1BitmapRenderTarget
_ZN17ID2D1RenderTarget28CreateCompatibleRenderTargetEPP23ID2D1BitmapRenderTarget:
.LFB10623:
	.loc 13 843 13
	pushq	%rbp	 #
	.seh_pushreg	%rbp
.LCFI227:
	movq	%rsp, %rbp	 #,
	.seh_setframe	%rbp, 0
.LCFI228:
	subq	$48, %rsp	 #,
	.seh_stackalloc	48
	.seh_endprologue
	movq	%rcx, 16(%rbp)	 # this, this
	movq	%rdx, 24(%rbp)	 # bitmapRenderTarget, bitmapRenderTarget
 # C:/msys64/mingw64/include/d2d1.h:844:         return CreateCompatibleRenderTarget(NULL, NULL, NULL, D2D1_COMPATIBLE_RENDER_TARGET_OPTIONS_NONE, bitmapRenderTarget);
	.loc 13 844 44
	movq	16(%rbp), %rax	 # this, tmp87
	movq	(%rax), %rax	 # this_5(D)->D.200640.D.199868._vptr.IUnknown, _1
	addq	$96, %rax	 #, _2
	movq	(%rax), %r10	 # *_2, _3
	movq	16(%rbp), %rax	 # this, tmp88
	movq	24(%rbp), %rdx	 # bitmapRenderTarget, tmp89
	movq	%rdx, 40(%rsp)	 # tmp89,
	movl	$0, 32(%rsp)	 #,
	movl	$0, %r9d	 #,
	movl	$0, %r8d	 #,
	movl	$0, %edx	 #,
	movq	%rax, %rcx	 # tmp88,
	call	*%r10	 # _3
.LVL2:
 # C:/msys64/mingw64/include/d2d1.h:845:     }
	.loc 13 845 5
	addq	$48, %rsp	 #,
	popq	%rbp	 #
.LCFI229:
	ret	
.LFE10623:
	.seh_endproc
	.section	.text$_ZN17ID2D1RenderTarget10DrawBitmapEP11ID2D1BitmapRK10D2D_RECT_Ff30D2D1_BITMAP_INTERPOLATION_MODEPS3_,"x"
	.linkonce discard
	.align 2
	.globl	_ZN17ID2D1RenderTarget10DrawBitmapEP11ID2D1BitmapRK10D2D_RECT_Ff30D2D1_BITMAP_INTERPOLATION_MODEPS3_
	.def	_ZN17ID2D1RenderTarget10DrawBitmapEP11ID2D1BitmapRK10D2D_RECT_Ff30D2D1_BITMAP_INTERPOLATION_MODEPS3_;	.scl	2;	.type	32;	.endef
	.seh_proc	_ZN17ID2D1RenderTarget10DrawBitmapEP11ID2D1BitmapRK10D2D_RECT_Ff30D2D1_BITMAP_INTERPOLATION_MODEPS3_
_ZN17ID2D1RenderTarget10DrawBitmapEP11ID2D1BitmapRK10D2D_RECT_Ff30D2D1_BITMAP_INTERPOLATION_MODEPS3_:
.LFB10637:
	.loc 13 899 10
	pushq	%rbp	 #
	.seh_pushreg	%rbp
.LCFI230:
	movq	%rsp, %rbp	 #,
	.seh_setframe	%rbp, 0
.LCFI231:
	subq	$48, %rsp	 #,
	.seh_stackalloc	48
	.seh_endprologue
	movq	%rcx, 16(%rbp)	 # this, this
	movq	%rdx, 24(%rbp)	 # bitmap, bitmap
	movq	%r8, 32(%rbp)	 # destinationRectangle, destinationRectangle
	movss	%xmm3, 40(%rbp)	 # opacity, opacity
 # C:/msys64/mingw64/include/d2d1.h:900:         DrawBitmap(bitmap, &destinationRectangle, opacity, interpolationMode, sourceRectangle);
	.loc 13 900 19
	movq	16(%rbp), %rax	 # this, tmp85
	movq	(%rax), %rax	 # this_5(D)->D.200640.D.199868._vptr.IUnknown, _1
	addq	$208, %rax	 #, _2
	movq	(%rax), %r9	 # *_2, _3
	movss	40(%rbp), %xmm0	 # opacity, tmp86
	movq	32(%rbp), %r8	 # destinationRectangle, tmp87
	movq	24(%rbp), %rdx	 # bitmap, tmp88
	movq	16(%rbp), %rax	 # this, tmp89
	movq	56(%rbp), %rcx	 # sourceRectangle, tmp90
	movq	%rcx, 40(%rsp)	 # tmp90,
	movl	48(%rbp), %ecx	 # interpolationMode, tmp91
	movl	%ecx, 32(%rsp)	 # tmp91,
	movaps	%xmm0, %xmm3	 # tmp86,
	movq	%rax, %rcx	 # tmp89,
	call	*%r9	 # _3
.LVL3:
 # C:/msys64/mingw64/include/d2d1.h:901:     }
	.loc 13 901 5
	nop	
	addq	$48, %rsp	 #,
	popq	%rbp	 #
.LCFI232:
	ret	
.LFE10637:
	.seh_endproc
	.section	.text$_ZN17ID2D1RenderTarget5ClearERK14_D3DCOLORVALUE,"x"
	.linkonce discard
	.align 2
	.globl	_ZN17ID2D1RenderTarget5ClearERK14_D3DCOLORVALUE
	.def	_ZN17ID2D1RenderTarget5ClearERK14_D3DCOLORVALUE;	.scl	2;	.type	32;	.endef
	.seh_proc	_ZN17ID2D1RenderTarget5ClearERK14_D3DCOLORVALUE
_ZN17ID2D1RenderTarget5ClearERK14_D3DCOLORVALUE:
.LFB10642:
	.loc 13 919 10
	pushq	%rbp	 #
	.seh_pushreg	%rbp
.LCFI233:
	movq	%rsp, %rbp	 #,
	.seh_setframe	%rbp, 0
.LCFI234:
	subq	$32, %rsp	 #,
	.seh_stackalloc	32
	.seh_endprologue
	movq	%rcx, 16(%rbp)	 # this, this
	movq	%rdx, 24(%rbp)	 # clearColor, clearColor
 # C:/msys64/mingw64/include/d2d1.h:920:         return Clear(&clearColor);
	.loc 13 920 21
	movq	16(%rbp), %rax	 # this, tmp85
	movq	(%rax), %rax	 # this_5(D)->D.200640.D.199868._vptr.IUnknown, _1
	addq	$376, %rax	 #, _2
	movq	(%rax), %r8	 # *_2, _3
	movq	24(%rbp), %rdx	 # clearColor, tmp86
	movq	16(%rbp), %rax	 # this, tmp87
	movq	%rax, %rcx	 # tmp87,
	call	*%r8	 # _3
.LVL4:
 # C:/msys64/mingw64/include/d2d1.h:920:         return Clear(&clearColor);
	.loc 13 920 33
	nop	
 # C:/msys64/mingw64/include/d2d1.h:921:     }
	.loc 13 921 5
	addq	$32, %rsp	 #,
	popq	%rbp	 #
.LCFI235:
	ret	
.LFE10642:
	.seh_endproc
	.section	.text$_ZN12ID2D1Factory22CreateHwndRenderTargetERK29D2D1_RENDER_TARGET_PROPERTIESRK34D2D1_HWND_RENDER_TARGET_PROPERTIESPP21ID2D1HwndRenderTarget,"x"
	.linkonce discard
	.align 2
	.globl	_ZN12ID2D1Factory22CreateHwndRenderTargetERK29D2D1_RENDER_TARGET_PROPERTIESRK34D2D1_HWND_RENDER_TARGET_PROPERTIESPP21ID2D1HwndRenderTarget
	.def	_ZN12ID2D1Factory22CreateHwndRenderTargetERK29D2D1_RENDER_TARGET_PROPERTIESRK34D2D1_HWND_RENDER_TARGET_PROPERTIESPP21ID2D1HwndRenderTarget;	.scl	2;	.type	32;	.endef
	.seh_proc	_ZN12ID2D1Factory22CreateHwndRenderTargetERK29D2D1_RENDER_TARGET_PROPERTIESRK34D2D1_HWND_RENDER_TARGET_PROPERTIESPP21ID2D1HwndRenderTarget
_ZN12ID2D1Factory22CreateHwndRenderTargetERK29D2D1_RENDER_TARGET_PROPERTIESRK34D2D1_HWND_RENDER_TARGET_PROPERTIESPP21ID2D1HwndRenderTarget:
.LFB10691:
	.loc 13 1610 13
	pushq	%rbp	 #
	.seh_pushreg	%rbp
.LCFI236:
	movq	%rsp, %rbp	 #,
	.seh_setframe	%rbp, 0
.LCFI237:
	subq	$32, %rsp	 #,
	.seh_stackalloc	32
	.seh_endprologue
	movq	%rcx, 16(%rbp)	 # this, this
	movq	%rdx, 24(%rbp)	 # renderTargetProperties, renderTargetProperties
	movq	%r8, 32(%rbp)	 # hwndRenderTargetProperties, hwndRenderTargetProperties
	movq	%r9, 40(%rbp)	 # hwndRenderTarget, hwndRenderTarget
 # C:/msys64/mingw64/include/d2d1.h:1611:         return CreateHwndRenderTarget(&renderTargetProperties, &hwndRenderTargetProperties, hwndRenderTarget);
	.loc 13 1611 38
	movq	16(%rbp), %rax	 # this, tmp87
	movq	(%rax), %rax	 # this_5(D)->D.201619._vptr.IUnknown, _1
	addq	$112, %rax	 #, _2
	movq	(%rax), %r10	 # *_2, _3
	movq	40(%rbp), %r8	 # hwndRenderTarget, tmp88
	movq	32(%rbp), %rcx	 # hwndRenderTargetProperties, tmp89
	movq	24(%rbp), %rdx	 # renderTargetProperties, tmp90
	movq	16(%rbp), %rax	 # this, tmp91
	movq	%r8, %r9	 # tmp88,
	movq	%rcx, %r8	 # tmp89,
	movq	%rax, %rcx	 # tmp91,
	call	*%r10	 # _3
.LVL5:
 # C:/msys64/mingw64/include/d2d1.h:1612:     }
	.loc 13 1612 5
	addq	$32, %rsp	 #,
	popq	%rbp	 #
.LCFI238:
	ret	
.LFE10691:
	.seh_endproc
	.section	.text$_ZN21ID2D1HwndRenderTarget6ResizeERK10D2D_SIZE_U,"x"
	.linkonce discard
	.align 2
	.globl	_ZN21ID2D1HwndRenderTarget6ResizeERK10D2D_SIZE_U
	.def	_ZN21ID2D1HwndRenderTarget6ResizeERK10D2D_SIZE_U;	.scl	2;	.type	32;	.endef
	.seh_proc	_ZN21ID2D1HwndRenderTarget6ResizeERK10D2D_SIZE_U
_ZN21ID2D1HwndRenderTarget6ResizeERK10D2D_SIZE_U:
.LFB10696:
	.loc 13 1843 13
	pushq	%rbp	 #
	.seh_pushreg	%rbp
.LCFI239:
	movq	%rsp, %rbp	 #,
	.seh_setframe	%rbp, 0
.LCFI240:
	subq	$32, %rsp	 #,
	.seh_stackalloc	32
	.seh_endprologue
	movq	%rcx, 16(%rbp)	 # this, this
	movq	%rdx, 24(%rbp)	 # pixelSize, pixelSize
 # C:/msys64/mingw64/include/d2d1.h:1844:         return Resize(&pixelSize);
	.loc 13 1844 22
	movq	16(%rbp), %rax	 # this, tmp87
	movq	(%rax), %rax	 # this_5(D)->D.201843.D.200640.D.199868._vptr.IUnknown, _1
	addq	$464, %rax	 #, _2
	movq	(%rax), %r8	 # *_2, _3
	movq	24(%rbp), %rdx	 # pixelSize, tmp88
	movq	16(%rbp), %rax	 # this, tmp89
	movq	%rax, %rcx	 # tmp89,
	call	*%r8	 # _3
.LVL6:
 # C:/msys64/mingw64/include/d2d1.h:1845:     }
	.loc 13 1845 5
	addq	$32, %rsp	 #,
	popq	%rbp	 #
.LCFI241:
	ret	
.LFE10696:
	.seh_endproc
	.globl	_ZN16__mingw_uuidof_sI12ID2D1FactoryE11__uuid_instE
	.section	.rdata$_ZN16__mingw_uuidof_sI12ID2D1FactoryE11__uuid_instE,"dr"
	.linkonce same_size
	.align 16
_ZN16__mingw_uuidof_sI12ID2D1FactoryE11__uuid_instE:
 # Data1:
	.long	102048327
 # Data2:
	.word	28496
 # Data3:
	.word	18010
 # Data4:
	.ascii "\222E\21\213\375;`\7"
	.section	.text$_Z14__mingw_uuidofI12ID2D1FactoryERK5_GUIDv,"x"
	.linkonce discard
	.globl	_Z14__mingw_uuidofI12ID2D1FactoryERK5_GUIDv
	.def	_Z14__mingw_uuidofI12ID2D1FactoryERK5_GUIDv;	.scl	2;	.type	32;	.endef
	.seh_proc	_Z14__mingw_uuidofI12ID2D1FactoryERK5_GUIDv
_Z14__mingw_uuidofI12ID2D1FactoryERK5_GUIDv:
.LFB10722:
	.loc 13 2452 1
	pushq	%rbp	 #
	.seh_pushreg	%rbp
.LCFI242:
	movq	%rsp, %rbp	 #,
	.seh_setframe	%rbp, 0
.LCFI243:
	.seh_endprologue
 # C:/msys64/mingw64/include/d2d1.h:2452: __CRT_UUID_DECL(ID2D1Factory, 0x06152247,0x6f50,0x465a,0x92,0x45,0x11,0x8b,0xfd,0x3b,0x60,0x07)
	.loc 13 2452 1
	leaq	_ZN16__mingw_uuidof_sI12ID2D1FactoryE11__uuid_instE(%rip), %rax	 #, _1
	popq	%rbp	 #
.LCFI244:
	ret	
.LFE10722:
	.seh_endproc
	.section	.text$_Z17D2D1CreateFactory17D2D1_FACTORY_TYPERK5_GUIDPPv,"x"
	.linkonce discard
	.globl	_Z17D2D1CreateFactory17D2D1_FACTORY_TYPERK5_GUIDPPv
	.def	_Z17D2D1CreateFactory17D2D1_FACTORY_TYPERK5_GUIDPPv;	.scl	2;	.type	32;	.endef
	.seh_proc	_Z17D2D1CreateFactory17D2D1_FACTORY_TYPERK5_GUIDPPv
_Z17D2D1CreateFactory17D2D1_FACTORY_TYPERK5_GUIDPPv:
.LFB10823:
	.loc 13 2515 90
	pushq	%rbp	 #
	.seh_pushreg	%rbp
.LCFI245:
	movq	%rsp, %rbp	 #,
	.seh_setframe	%rbp, 0
.LCFI246:
	subq	$32, %rsp	 #,
	.seh_stackalloc	32
	.seh_endprologue
	movl	%ecx, 16(%rbp)	 # factoryType, factoryType
	movq	%rdx, 24(%rbp)	 # riid, riid
	movq	%r8, 32(%rbp)	 # ppv, ppv
 # C:/msys64/mingw64/include/d2d1.h:2516:     return D2D1CreateFactory(factoryType, riid, NULL, ppv);
	.loc 13 2516 29
	movq	32(%rbp), %rcx	 # ppv, tmp84
	movq	24(%rbp), %rdx	 # riid, tmp85
	movl	16(%rbp), %eax	 # factoryType, tmp86
	movq	%rcx, %r9	 # tmp84,
	movl	$0, %r8d	 #,
	movl	%eax, %ecx	 # tmp86,
	call	D2D1CreateFactory	 #
 # C:/msys64/mingw64/include/d2d1.h:2517: }
	.loc 13 2517 1
	addq	$32, %rsp	 #,
	popq	%rbp	 #
.LCFI247:
	ret	
.LFE10823:
	.seh_endproc
	.globl	Factory
	.bss
	.align 8
Factory:
	.space 8
	.globl	RenderTarget
	.align 8
RenderTarget:
	.space 8
	.globl	BitmapRT
	.align 8
BitmapRT:
	.space 8
	.globl	Bitmap
	.align 8
Bitmap:
	.space 8
	.globl	brushPool
	.align 8
brushPool:
	.space 8
	.globl	memory
	.align 8
memory:
	.space 8
	.section	.text$_ZN5Vec3DC1Efff,"x"
	.linkonce discard
	.align 2
	.globl	_ZN5Vec3DC1Efff
	.def	_ZN5Vec3DC1Efff;	.scl	2;	.type	32;	.endef
	.seh_proc	_ZN5Vec3DC1Efff
_ZN5Vec3DC1Efff:
.LFB10889:
	.file 14 "src/main.cpp"
	.loc 14 57 29
	pushq	%rbp	 #
	.seh_pushreg	%rbp
.LCFI248:
	movq	%rsp, %rbp	 #,
	.seh_setframe	%rbp, 0
.LCFI249:
	.seh_endprologue
	movq	%rcx, 16(%rbp)	 # this, this
	movss	%xmm1, 24(%rbp)	 # _x, _x
	movss	%xmm2, 32(%rbp)	 # _y, _y
	movss	%xmm3, 40(%rbp)	 # _z, _z
.LBB109:
 # src\main.cpp:57: 	float x; float y; float z; Vec3D(float _x, float _y, float _z) : x(_x), y(_y), z(_z) {}
	.loc 14 57 67
	movq	16(%rbp), %rax	 # this, tmp82
	movss	24(%rbp), %xmm0	 # _x, tmp83
	movss	%xmm0, (%rax)	 # tmp83, this_2(D)->x
 # src\main.cpp:57: 	float x; float y; float z; Vec3D(float _x, float _y, float _z) : x(_x), y(_y), z(_z) {}
	.loc 14 57 74
	movq	16(%rbp), %rax	 # this, tmp84
	movss	32(%rbp), %xmm0	 # _y, tmp85
	movss	%xmm0, 4(%rax)	 # tmp85, this_2(D)->y
 # src\main.cpp:57: 	float x; float y; float z; Vec3D(float _x, float _y, float _z) : x(_x), y(_y), z(_z) {}
	.loc 14 57 81
	movq	16(%rbp), %rax	 # this, tmp86
	movss	40(%rbp), %xmm0	 # _z, tmp87
	movss	%xmm0, 8(%rax)	 # tmp87, this_2(D)->z
.LBE109:
 # src\main.cpp:57: 	float x; float y; float z; Vec3D(float _x, float _y, float _z) : x(_x), y(_y), z(_z) {}
	.loc 14 57 88
	nop	
	popq	%rbp	 #
.LCFI250:
	ret	
.LFE10889:
	.seh_endproc
	.section	.text$_ZN6MATRIX4cellC1ENS_7elementE,"x"
	.linkonce discard
	.align 2
	.globl	_ZN6MATRIX4cellC1ENS_7elementE
	.def	_ZN6MATRIX4cellC1ENS_7elementE;	.scl	2;	.type	32;	.endef
	.seh_proc	_ZN6MATRIX4cellC1ENS_7elementE
_ZN6MATRIX4cellC1ENS_7elementE:
.LFB10904:
	.loc 14 94 3
	pushq	%rbp	 #
	.seh_pushreg	%rbp
.LCFI251:
	movq	%rsp, %rbp	 #,
	.seh_setframe	%rbp, 0
.LCFI252:
	subq	$32, %rsp	 #,
	.seh_stackalloc	32
	.seh_endprologue
	movq	%rcx, 16(%rbp)	 # this, this
	movl	%edx, 24(%rbp)	 # _MaterialType, _MaterialType
.LBB110:
 # src\main.cpp:94: 		cell(element _MaterialType) : MaterialType(_MaterialType) {}
	.loc 14 94 59
	movq	16(%rbp), %rax	 # this, tmp83
	pxor	%xmm0, %xmm0	 # tmp84
	movss	%xmm0, (%rax)	 # tmp84, this_3(D)->temperature
	movq	16(%rbp), %rax	 # this, tmp85
	addq	$4, %rax	 #, _1
	pxor	%xmm3, %xmm3	 #
	pxor	%xmm2, %xmm2	 #
	pxor	%xmm1, %xmm1	 #
	movq	%rax, %rcx	 # _1,
	call	_ZN5Vec3DC1Efff	 #
	movq	16(%rbp), %rax	 # this, tmp86
	pxor	%xmm0, %xmm0	 # tmp87
	movsd	%xmm0, 16(%rax)	 # tmp87, this_3(D)->pressure
	movq	16(%rbp), %rax	 # this, tmp88
	movb	$0, 24(%rax)	 #, this_3(D)->active
 # src\main.cpp:94: 		cell(element _MaterialType) : MaterialType(_MaterialType) {}
	.loc 14 94 33
	movq	16(%rbp), %rax	 # this, tmp89
	movl	24(%rbp), %edx	 # _MaterialType, tmp90
	movl	%edx, 28(%rax)	 # tmp90, this_3(D)->MaterialType
.LBE110:
 # src\main.cpp:94: 		cell(element _MaterialType) : MaterialType(_MaterialType) {}
	.loc 14 94 62
	nop	
	addq	$32, %rsp	 #,
	popq	%rbp	 #
.LCFI253:
	ret	
.LFE10904:
	.seh_endproc
	.section	.text$_ZN6MATRIX4cellD1Ev,"x"
	.linkonce discard
	.align 2
	.globl	_ZN6MATRIX4cellD1Ev
	.def	_ZN6MATRIX4cellD1Ev;	.scl	2;	.type	32;	.endef
	.seh_proc	_ZN6MATRIX4cellD1Ev
_ZN6MATRIX4cellD1Ev:
.LFB10916:
	.loc 14 99 3
	pushq	%rbp	 #
	.seh_pushreg	%rbp
.LCFI254:
	movq	%rsp, %rbp	 #,
	.seh_setframe	%rbp, 0
.LCFI255:
	subq	$48, %rsp	 #,
	.seh_stackalloc	48
	.seh_endprologue
	movq	%rcx, 16(%rbp)	 # this, this
.LBB111:
 # src\main.cpp:101: 			temperature  = 0.0f;
	.loc 14 101 17
	movq	16(%rbp), %rax	 # this, tmp82
	pxor	%xmm0, %xmm0	 # tmp83
	movss	%xmm0, (%rax)	 # tmp83, this_2(D)->temperature
 # src\main.cpp:102: 			velocity     = Vec3D(0.0f, 0.0f, 0.0f);
	.loc 14 102 19
	leaq	-12(%rbp), %rax	 #, tmp84
	pxor	%xmm3, %xmm3	 #
	pxor	%xmm2, %xmm2	 #
	pxor	%xmm1, %xmm1	 #
	movq	%rax, %rcx	 # tmp84,
	call	_ZN5Vec3DC1Efff	 #
 # src\main.cpp:102: 			velocity     = Vec3D(0.0f, 0.0f, 0.0f);
	.loc 14 102 17
	movq	16(%rbp), %rax	 # this, tmp85
	movq	-12(%rbp), %rdx	 # D.208252, tmp86
	movq	%rdx, 4(%rax)	 # tmp86, this_2(D)->velocity
	movl	-4(%rbp), %edx	 # D.208252, tmp87
	movl	%edx, 12(%rax)	 # tmp87, this_2(D)->velocity
 # src\main.cpp:103: 			pressure     = 0.0;
	.loc 14 103 17
	movq	16(%rbp), %rax	 # this, tmp88
	pxor	%xmm0, %xmm0	 # tmp89
	movsd	%xmm0, 16(%rax)	 # tmp89, this_2(D)->pressure
 # src\main.cpp:104: 			active       = false;
	.loc 14 104 17
	movq	16(%rbp), %rax	 # this, tmp90
	movb	$0, 24(%rax)	 #, this_2(D)->active
.LBE111:
 # src\main.cpp:105: 		}
	.loc 14 105 3
	nop	
	addq	$48, %rsp	 #,
	popq	%rbp	 #
.LCFI256:
	ret	
.LFE10916:
	.seh_endproc
	.section	.text$_ZN6MATRIX18MaterialAttributesC1Ev,"x"
	.linkonce discard
	.align 2
	.globl	_ZN6MATRIX18MaterialAttributesC1Ev
	.def	_ZN6MATRIX18MaterialAttributesC1Ev;	.scl	2;	.type	32;	.endef
	.seh_proc	_ZN6MATRIX18MaterialAttributesC1Ev
_ZN6MATRIX18MaterialAttributesC1Ev:
.LFB10920:
	.loc 14 79 9
	pushq	%rbp	 #
	.seh_pushreg	%rbp
.LCFI257:
	movq	%rsp, %rbp	 #,
	.seh_setframe	%rbp, 0
.LCFI258:
	.seh_endprologue
	movq	%rcx, 16(%rbp)	 # this, this
.LBB112:
 # src\main.cpp:79: 	struct MaterialAttributes
	.loc 14 79 9
	movq	16(%rbp), %rax	 # this, tmp82
	movq	$0, 32(%rax)	 #, this_2(D)->name
.LBE112:
	nop	
	popq	%rbp	 #
.LCFI259:
	ret	
.LFE10920:
	.seh_endproc
	.section	.text$_ZNSt15__uniq_ptr_dataIN6MATRIX18MaterialAttributesESt14default_deleteIA_S1_ELb1ELb1EEaSEOS5_,"x"
	.linkonce discard
	.align 2
	.globl	_ZNSt15__uniq_ptr_dataIN6MATRIX18MaterialAttributesESt14default_deleteIA_S1_ELb1ELb1EEaSEOS5_
	.def	_ZNSt15__uniq_ptr_dataIN6MATRIX18MaterialAttributesESt14default_deleteIA_S1_ELb1ELb1EEaSEOS5_;	.scl	2;	.type	32;	.endef
	.seh_proc	_ZNSt15__uniq_ptr_dataIN6MATRIX18MaterialAttributesESt14default_deleteIA_S1_ELb1ELb1EEaSEOS5_
_ZNSt15__uniq_ptr_dataIN6MATRIX18MaterialAttributesESt14default_deleteIA_S1_ELb1ELb1EEaSEOS5_:
.LFB10922:
	.file 15 "C:/msys64/mingw64/include/c++/12.2.0/bits/unique_ptr.h"
	.loc 15 235 24
	pushq	%rbp	 #
	.seh_pushreg	%rbp
.LCFI260:
	movq	%rsp, %rbp	 #,
	.seh_setframe	%rbp, 0
.LCFI261:
	subq	$32, %rsp	 #,
	.seh_stackalloc	32
	.seh_endprologue
	movq	%rcx, 16(%rbp)	 # this, this
	movq	%rdx, 24(%rbp)	 # D.207743, D.207743
 # C:/msys64/mingw64/include/c++/12.2.0/bits/unique_ptr.h:235:       __uniq_ptr_data& operator=(__uniq_ptr_data&&) = default;
	.loc 15 235 24
	movq	16(%rbp), %rax	 # this, _1
	movq	24(%rbp), %rdx	 # D.207743, _2
	movq	%rax, %rcx	 # _1,
	call	_ZNSt15__uniq_ptr_implIN6MATRIX18MaterialAttributesESt14default_deleteIA_S1_EEaSEOS5_	 #
	movq	16(%rbp), %rax	 # this, _7
	addq	$32, %rsp	 #,
	popq	%rbp	 #
.LCFI262:
	ret	
.LFE10922:
	.seh_endproc
	.section	.text$_ZNSt10unique_ptrIA_N6MATRIX18MaterialAttributesESt14default_deleteIS2_EEaSEOS5_,"x"
	.linkonce discard
	.align 2
	.globl	_ZNSt10unique_ptrIA_N6MATRIX18MaterialAttributesESt14default_deleteIS2_EEaSEOS5_
	.def	_ZNSt10unique_ptrIA_N6MATRIX18MaterialAttributesESt14default_deleteIS2_EEaSEOS5_;	.scl	2;	.type	32;	.endef
	.seh_proc	_ZNSt10unique_ptrIA_N6MATRIX18MaterialAttributesESt14default_deleteIS2_EEaSEOS5_
_ZNSt10unique_ptrIA_N6MATRIX18MaterialAttributesESt14default_deleteIS2_EEaSEOS5_:
.LFB10921:
	.loc 15 680 7
	pushq	%rbp	 #
	.seh_pushreg	%rbp
.LCFI263:
	movq	%rsp, %rbp	 #,
	.seh_setframe	%rbp, 0
.LCFI264:
	subq	$32, %rsp	 #,
	.seh_stackalloc	32
	.seh_endprologue
	movq	%rcx, 16(%rbp)	 # this, this
	movq	%rdx, 24(%rbp)	 # D.208010, D.208010
 # C:/msys64/mingw64/include/c++/12.2.0/bits/unique_ptr.h:680:       operator=(unique_ptr&&) = default;
	.loc 15 680 7
	movq	24(%rbp), %rdx	 # D.208010, _1
	movq	16(%rbp), %rax	 # this, _2
	movq	%rax, %rcx	 # _2,
	call	_ZNSt15__uniq_ptr_dataIN6MATRIX18MaterialAttributesESt14default_deleteIA_S1_ELb1ELb1EEaSEOS5_	 #
	movq	16(%rbp), %rax	 # this, _7
	addq	$32, %rsp	 #,
	popq	%rbp	 #
.LCFI265:
	ret	
.LFE10921:
	.seh_endproc
	.section .rdata,"dr"
	.align 8
.LC2:
	.ascii "-> cells set to: element::air\12\0"
.LC3:
	.ascii "-> elements::name... \12\0"
.LC4:
	.ascii "air\0"
.LC5:
	.ascii "water\0"
.LC6:
	.ascii "wood\0"
.LC7:
	.ascii "fire\0"
.LC8:
	.ascii "metal\0"
.LC9:
	.ascii "Custom\0"
.LC10:
	.ascii "-> elements::density... \12\0"
.LC15:
	.ascii "-> elements::friction... \12\0"
	.align 8
.LC20:
	.ascii "-> elements::ThermalConductivity... \12\0"
	.align 8
.LC24:
	.ascii "-> elements::specificHeat... \12\0"
.LC29:
	.ascii "-> elements::restitution... \12\0"
.LC32:
	.ascii "-> elements::hardness... \12\0"
	.align 8
.LC34:
	.ascii "matrix initialized: CELLS: [%d] BPC: [%d]\12\12\0"
	.section	.text$_ZN6MATRIX10InitMatrixEjjj,"x"
	.linkonce discard
	.align 2
	.globl	_ZN6MATRIX10InitMatrixEjjj
	.def	_ZN6MATRIX10InitMatrixEjjj;	.scl	2;	.type	32;	.endef
	.seh_proc	_ZN6MATRIX10InitMatrixEjjj
_ZN6MATRIX10InitMatrixEjjj:
.LFB10917:
	.loc 14 115 11
	pushq	%rbp	 #
	.seh_pushreg	%rbp
.LCFI266:
	pushq	%rdi	 #
	.seh_pushreg	%rdi
.LCFI267:
	pushq	%rsi	 #
	.seh_pushreg	%rsi
.LCFI268:
	pushq	%rbx	 #
	.seh_pushreg	%rbx
.LCFI269:
	subq	$280, %rsp	 #,
	.seh_stackalloc	280
.LCFI270:
	leaq	128(%rsp), %rbp	 #,
	.seh_setframe	%rbp, 128
.LCFI271:
	.seh_endprologue
	movq	%rcx, 192(%rbp)	 # this, this
	movl	%edx, 200(%rbp)	 # width, width
	movl	%r8d, 208(%rbp)	 # height, height
	movl	%r9d, 216(%rbp)	 # depth, depth
 # src\main.cpp:117: 		w = width; h = height; d = depth;
	.loc 14 117 5
	movq	192(%rbp), %rax	 # this, tmp262
	movl	200(%rbp), %edx	 # width, tmp263
	movl	%edx, 40(%rax)	 # tmp263, this_184(D)->w
 # src\main.cpp:117: 		w = width; h = height; d = depth;
	.loc 14 117 16
	movq	192(%rbp), %rax	 # this, tmp264
	movl	208(%rbp), %edx	 # height, tmp265
	movl	%edx, 44(%rax)	 # tmp265, this_184(D)->h
 # src\main.cpp:117: 		w = width; h = height; d = depth;
	.loc 14 117 28
	movq	192(%rbp), %rax	 # this, tmp266
	movl	216(%rbp), %edx	 # depth, tmp267
	movl	%edx, 48(%rax)	 # tmp267, this_184(D)->d
 # src\main.cpp:121: 		CELL_FRONT_BUFFER = static_cast<cell*>(malloc(sizeof(cell) * (width * height * depth)));
	.loc 14 121 71
	movl	200(%rbp), %eax	 # width, tmp268
	imull	208(%rbp), %eax	 # height, _1
 # src\main.cpp:121: 		CELL_FRONT_BUFFER = static_cast<cell*>(malloc(sizeof(cell) * (width * height * depth)));
	.loc 14 121 80
	imull	216(%rbp), %eax	 # depth, _2
	movl	%eax, %eax	 # _2, _3
 # src\main.cpp:121: 		CELL_FRONT_BUFFER = static_cast<cell*>(malloc(sizeof(cell) * (width * height * depth)));
	.loc 14 121 48
	salq	$5, %rax	 #, _4
	movq	%rax, %rcx	 # _4,
	call	malloc	 #
	movq	%rax, %rdx	 # tmp269, _5
 # src\main.cpp:121: 		CELL_FRONT_BUFFER = static_cast<cell*>(malloc(sizeof(cell) * (width * height * depth)));
	.loc 14 121 21
	movq	192(%rbp), %rax	 # this, tmp270
	movq	%rdx, 8(%rax)	 # _5, this_184(D)->CELL_FRONT_BUFFER
.LBB113:
 # src\main.cpp:123: 		for(uint32_t i=0; i<width * height * depth; ++i)
	.loc 14 123 16
	movl	$0, 140(%rbp)	 #, i
 # src\main.cpp:123: 		for(uint32_t i=0; i<width * height * depth; ++i)
	.loc 14 123 3
	jmp	.L185	 #
.L186:
 # src\main.cpp:125: 			new (&CELL_FRONT_BUFFER[i]) cell(element::air);
	.loc 14 125 10 discriminator 3
	movq	192(%rbp), %rax	 # this, tmp271
	movq	8(%rax), %rax	 # this_184(D)->CELL_FRONT_BUFFER, _6
 # src\main.cpp:125: 			new (&CELL_FRONT_BUFFER[i]) cell(element::air);
	.loc 14 125 28 discriminator 3
	movl	140(%rbp), %edx	 # i, _7
 # src\main.cpp:125: 			new (&CELL_FRONT_BUFFER[i]) cell(element::air);
	.loc 14 125 29 discriminator 3
	salq	$5, %rdx	 #, _8
 # src\main.cpp:125: 			new (&CELL_FRONT_BUFFER[i]) cell(element::air);
	.loc 14 125 4 discriminator 3
	addq	%rdx, %rax	 # _8, _370
 # src\main.cpp:125: 			new (&CELL_FRONT_BUFFER[i]) cell(element::air);
	.loc 14 125 49 discriminator 3
	movq	%rax, %rdx	 # _370,
	movl	$32, %ecx	 #,
	call	_ZnwyPv	 #
	movl	$0, %edx	 #,
	movq	%rax, %rcx	 # _372,
	call	_ZN6MATRIX4cellC1ENS_7elementE	 #
 # src\main.cpp:123: 		for(uint32_t i=0; i<width * height * depth; ++i)
	.loc 14 123 3 discriminator 3
	addl	$1, 140(%rbp)	 #, i
.L185:
 # src\main.cpp:123: 		for(uint32_t i=0; i<width * height * depth; ++i)
	.loc 14 123 29 discriminator 1
	movl	200(%rbp), %eax	 # width, tmp272
	imull	208(%rbp), %eax	 # height, _9
 # src\main.cpp:123: 		for(uint32_t i=0; i<width * height * depth; ++i)
	.loc 14 123 38 discriminator 1
	imull	216(%rbp), %eax	 # depth, _10
 # src\main.cpp:123: 		for(uint32_t i=0; i<width * height * depth; ++i)
	.loc 14 123 22 discriminator 1
	cmpl	%eax, 140(%rbp)	 # _10, i
	jb	.L186	 #,
.LBE113:
 # src\main.cpp:130: 		CELL_BACK_BUFFER = static_cast<cell*>(malloc(sizeof(cell) * (width * height * depth)));
	.loc 14 130 70
	movl	200(%rbp), %eax	 # width, tmp273
	imull	208(%rbp), %eax	 # height, _11
 # src\main.cpp:130: 		CELL_BACK_BUFFER = static_cast<cell*>(malloc(sizeof(cell) * (width * height * depth)));
	.loc 14 130 79
	imull	216(%rbp), %eax	 # depth, _12
	movl	%eax, %eax	 # _12, _13
 # src\main.cpp:130: 		CELL_BACK_BUFFER = static_cast<cell*>(malloc(sizeof(cell) * (width * height * depth)));
	.loc 14 130 47
	salq	$5, %rax	 #, _14
	movq	%rax, %rcx	 # _14,
	call	malloc	 #
	movq	%rax, %rdx	 # tmp274, _15
 # src\main.cpp:130: 		CELL_BACK_BUFFER = static_cast<cell*>(malloc(sizeof(cell) * (width * height * depth)));
	.loc 14 130 20
	movq	192(%rbp), %rax	 # this, tmp275
	movq	%rdx, 24(%rax)	 # _15, this_184(D)->CELL_BACK_BUFFER
.LBB114:
 # src\main.cpp:132: 		for(uint32_t i=0; i<width * height * depth; ++i)
	.loc 14 132 16
	movl	$0, 136(%rbp)	 #, i
 # src\main.cpp:132: 		for(uint32_t i=0; i<width * height * depth; ++i)
	.loc 14 132 3
	jmp	.L187	 #
.L188:
 # src\main.cpp:134: 			new (&CELL_BACK_BUFFER[i]) cell(element::air);
	.loc 14 134 10 discriminator 3
	movq	192(%rbp), %rax	 # this, tmp276
	movq	24(%rax), %rax	 # this_184(D)->CELL_BACK_BUFFER, _16
 # src\main.cpp:134: 			new (&CELL_BACK_BUFFER[i]) cell(element::air);
	.loc 14 134 27 discriminator 3
	movl	136(%rbp), %edx	 # i, _17
 # src\main.cpp:134: 			new (&CELL_BACK_BUFFER[i]) cell(element::air);
	.loc 14 134 28 discriminator 3
	salq	$5, %rdx	 #, _18
 # src\main.cpp:134: 			new (&CELL_BACK_BUFFER[i]) cell(element::air);
	.loc 14 134 4 discriminator 3
	addq	%rdx, %rax	 # _18, _363
 # src\main.cpp:134: 			new (&CELL_BACK_BUFFER[i]) cell(element::air);
	.loc 14 134 48 discriminator 3
	movq	%rax, %rdx	 # _363,
	movl	$32, %ecx	 #,
	call	_ZnwyPv	 #
	movl	$0, %edx	 #,
	movq	%rax, %rcx	 # _365,
	call	_ZN6MATRIX4cellC1ENS_7elementE	 #
 # src\main.cpp:132: 		for(uint32_t i=0; i<width * height * depth; ++i)
	.loc 14 132 3 discriminator 3
	addl	$1, 136(%rbp)	 #, i
.L187:
 # src\main.cpp:132: 		for(uint32_t i=0; i<width * height * depth; ++i)
	.loc 14 132 29 discriminator 1
	movl	200(%rbp), %eax	 # width, tmp277
	imull	208(%rbp), %eax	 # height, _19
 # src\main.cpp:132: 		for(uint32_t i=0; i<width * height * depth; ++i)
	.loc 14 132 38 discriminator 1
	imull	216(%rbp), %eax	 # depth, _20
 # src\main.cpp:132: 		for(uint32_t i=0; i<width * height * depth; ++i)
	.loc 14 132 22 discriminator 1
	cmpl	%eax, 136(%rbp)	 # _20, i
	jb	.L188	 #,
.LBE114:
 # src\main.cpp:137: 		matAtt = std::unique_ptr<MaterialAttributes[]>(new MaterialAttributes[static_cast<uint32_t>(element::size)]);
	.loc 14 137 109
	movl	$240, %ecx	 #,
.LEHB0:
	call	_Znay	 #
	movq	%rax, %rdi	 # tmp278, _198
	movq	%rdi, %rsi	 # _198, _163
	movl	$5, %ebx	 #, _164
	jmp	.L189	 #
.L190:
 # src\main.cpp:137: 		matAtt = std::unique_ptr<MaterialAttributes[]>(new MaterialAttributes[static_cast<uint32_t>(element::size)]);
	.loc 14 137 109 is_stmt 0 discriminator 5
	movq	%rsi, %rcx	 # _163,
	call	_ZN6MATRIX18MaterialAttributesC1Ev	 #
	subq	$1, %rbx	 #, _164
	addq	$40, %rsi	 #, _163
.L189:
 # src\main.cpp:137: 		matAtt = std::unique_ptr<MaterialAttributes[]>(new MaterialAttributes[static_cast<uint32_t>(element::size)]);
	.loc 14 137 109 discriminator 3
	testq	%rbx, %rbx	 # _164
	jns	.L190	 #,
 # src\main.cpp:137: 		matAtt = std::unique_ptr<MaterialAttributes[]>(new MaterialAttributes[static_cast<uint32_t>(element::size)]);
	.loc 14 137 17 is_stmt 1 discriminator 6
	leaq	-40(%rbp), %rax	 #, tmp279
	movq	%rdi, %rdx	 # _198,
	movq	%rax, %rcx	 # tmp279,
	call	_ZNSt10unique_ptrIA_N6MATRIX18MaterialAttributesESt14default_deleteIS2_EEC1IPS1_S4_vbEET_	 #
 # src\main.cpp:137: 		matAtt = std::unique_ptr<MaterialAttributes[]>(new MaterialAttributes[static_cast<uint32_t>(element::size)]);
	.loc 14 137 110 discriminator 6
	movq	192(%rbp), %rax	 # this, tmp280
	leaq	32(%rax), %rcx	 #, _21
	leaq	-40(%rbp), %rax	 #, tmp281
	movq	%rax, %rdx	 # tmp281,
	call	_ZNSt10unique_ptrIA_N6MATRIX18MaterialAttributesESt14default_deleteIS2_EEaSEOS5_	 #
 # src\main.cpp:137: 		matAtt = std::unique_ptr<MaterialAttributes[]>(new MaterialAttributes[static_cast<uint32_t>(element::size)]);
	.loc 14 137 17 discriminator 6
	leaq	-40(%rbp), %rax	 #, tmp282
	movq	%rax, %rcx	 # tmp282,
	call	_ZNSt10unique_ptrIA_N6MATRIX18MaterialAttributesESt14default_deleteIS2_EED1Ev	 #
 # src\main.cpp:139: 		printf("-> cells set to: element::air\n");
	.loc 14 139 9 discriminator 6
	leaq	.LC2(%rip), %rax	 #, tmp283
	movq	%rax, %rcx	 # tmp283,
	call	_Z6printfPKcz	 #
.LEHE0:
.LBB115:
 # src\main.cpp:140: 		for(uint32_t i=0; i<= width * height * depth -1; ++i)
	.loc 14 140 16 discriminator 6
	movl	$0, 132(%rbp)	 #, i
 # src\main.cpp:140: 		for(uint32_t i=0; i<= width * height * depth -1; ++i)
	.loc 14 140 3 discriminator 6
	jmp	.L191	 #
.L197:
.LBB116:
 # src\main.cpp:143: 			uint32_t x = i % w; uint32_t y = (i / w) % h; uint32_t z = i / (w * h);
	.loc 14 143 21
	movq	192(%rbp), %rax	 # this, tmp284
	movl	40(%rax), %ecx	 # this_184(D)->w, _22
 # src\main.cpp:143: 			uint32_t x = i % w; uint32_t y = (i / w) % h; uint32_t z = i / (w * h);
	.loc 14 143 13
	movl	132(%rbp), %eax	 # i, tmp286
	movl	$0, %edx	 #, tmp287
	divl	%ecx	 # _22
	movl	%edx, 108(%rbp)	 # tmp287, x
 # src\main.cpp:143: 			uint32_t x = i % w; uint32_t y = (i / w) % h; uint32_t z = i / (w * h);
	.loc 14 143 42
	movq	192(%rbp), %rax	 # this, tmp289
	movl	40(%rax), %edi	 # this_184(D)->w, _23
 # src\main.cpp:143: 			uint32_t x = i % w; uint32_t y = (i / w) % h; uint32_t z = i / (w * h);
	.loc 14 143 40
	movl	132(%rbp), %eax	 # i, tmp292
	movl	$0, %edx	 #, tmp291
	divl	%edi	 # _23
	movl	%eax, %edx	 # tmp290, _24
 # src\main.cpp:143: 			uint32_t x = i % w; uint32_t y = (i / w) % h; uint32_t z = i / (w * h);
	.loc 14 143 47
	movq	192(%rbp), %rax	 # this, tmp293
	movl	44(%rax), %ecx	 # this_184(D)->h, _25
 # src\main.cpp:143: 			uint32_t x = i % w; uint32_t y = (i / w) % h; uint32_t z = i / (w * h);
	.loc 14 143 33
	movl	%edx, %eax	 # _24, _24
	movl	$0, %edx	 #, tmp294
	divl	%ecx	 # _25
	movl	%edx, 104(%rbp)	 # tmp294, y
 # src\main.cpp:143: 			uint32_t x = i % w; uint32_t y = (i / w) % h; uint32_t z = i / (w * h);
	.loc 14 143 68
	movq	192(%rbp), %rax	 # this, tmp296
	movl	40(%rax), %edx	 # this_184(D)->w, _26
 # src\main.cpp:143: 			uint32_t x = i % w; uint32_t y = (i / w) % h; uint32_t z = i / (w * h);
	.loc 14 143 72
	movq	192(%rbp), %rax	 # this, tmp297
	movl	44(%rax), %eax	 # this_184(D)->h, _27
 # src\main.cpp:143: 			uint32_t x = i % w; uint32_t y = (i / w) % h; uint32_t z = i / (w * h);
	.loc 14 143 70
	movl	%edx, %edi	 # _26, _26
	imull	%eax, %edi	 # _27, _26
 # src\main.cpp:143: 			uint32_t x = i % w; uint32_t y = (i / w) % h; uint32_t z = i / (w * h);
	.loc 14 143 59
	movl	132(%rbp), %eax	 # i, tmp300
	movl	$0, %edx	 #, tmp299
	divl	%edi	 # _28
	movl	%eax, 100(%rbp)	 # tmp298, z
 # src\main.cpp:144: 			cell back_buffer_cell = CHECK_MATRIX_WALLS() ? WriteDataTo(x, y, z, cell(element::Custom)) : WriteDataTo(x, y, z, cell(element::air));
	.loc 14 144 136
	movl	$0, %ebx	 #, cleanup.100_168
	movl	$0, %esi	 #, cleanup.101_170
 # src\main.cpp:144: 			cell back_buffer_cell = CHECK_MATRIX_WALLS() ? WriteDataTo(x, y, z, cell(element::Custom)) : WriteDataTo(x, y, z, cell(element::air));
	.loc 14 144 49
	cmpl	$0, 108(%rbp)	 #, x
	je	.L192	 #,
 # src\main.cpp:144: 			cell back_buffer_cell = CHECK_MATRIX_WALLS() ? WriteDataTo(x, y, z, cell(element::Custom)) : WriteDataTo(x, y, z, cell(element::air));
	.loc 14 144 28 discriminator 2
	movq	192(%rbp), %rax	 # this, tmp301
	movl	40(%rax), %eax	 # this_184(D)->w, _29
	subl	$1, %eax	 #, _30
	cmpl	%eax, 108(%rbp)	 # _30, x
	je	.L192	 #,
 # src\main.cpp:144: 			cell back_buffer_cell = CHECK_MATRIX_WALLS() ? WriteDataTo(x, y, z, cell(element::Custom)) : WriteDataTo(x, y, z, cell(element::air));
	.loc 14 144 28 is_stmt 0 discriminator 4
	cmpl	$0, 104(%rbp)	 #, y
	je	.L192	 #,
 # src\main.cpp:144: 			cell back_buffer_cell = CHECK_MATRIX_WALLS() ? WriteDataTo(x, y, z, cell(element::Custom)) : WriteDataTo(x, y, z, cell(element::air));
	.loc 14 144 28 discriminator 6
	movq	192(%rbp), %rax	 # this, tmp302
	movl	44(%rax), %eax	 # this_184(D)->h, _31
	subl	$1, %eax	 #, _32
	cmpl	%eax, 104(%rbp)	 # _32, y
	je	.L192	 #,
 # src\main.cpp:144: 			cell back_buffer_cell = CHECK_MATRIX_WALLS() ? WriteDataTo(x, y, z, cell(element::Custom)) : WriteDataTo(x, y, z, cell(element::air));
	.loc 14 144 28 discriminator 8
	cmpl	$0, 100(%rbp)	 #, z
	je	.L192	 #,
 # src\main.cpp:144: 			cell back_buffer_cell = CHECK_MATRIX_WALLS() ? WriteDataTo(x, y, z, cell(element::Custom)) : WriteDataTo(x, y, z, cell(element::air));
	.loc 14 144 28 discriminator 10
	movq	192(%rbp), %rax	 # this, tmp303
	movl	48(%rax), %eax	 # this_184(D)->d, _33
	subl	$1, %eax	 #, _34
	cmpl	%eax, 100(%rbp)	 # _34, z
	jne	.L193	 #,
.L192:
 # src\main.cpp:144: 			cell back_buffer_cell = CHECK_MATRIX_WALLS() ? WriteDataTo(x, y, z, cell(element::Custom)) : WriteDataTo(x, y, z, cell(element::air));
	.loc 14 144 72 is_stmt 1 discriminator 11
	leaq	-32(%rbp), %rax	 #, tmp304
	movl	$5, %edx	 #,
	movq	%rax, %rcx	 # tmp304,
	call	_ZN6MATRIX4cellC1ENS_7elementE	 #
 # src\main.cpp:144: 			cell back_buffer_cell = CHECK_MATRIX_WALLS() ? WriteDataTo(x, y, z, cell(element::Custom)) : WriteDataTo(x, y, z, cell(element::air));
	.loc 14 144 136 discriminator 11
	movl	$1, %ebx	 #, cleanup.100_168
	leaq	-80(%rbp), %rax	 #, tmp305
	movl	104(%rbp), %r9d	 # y, tmp306
	movl	108(%rbp), %r8d	 # x, tmp307
	movq	192(%rbp), %rdx	 # this, tmp308
	leaq	-32(%rbp), %rcx	 #, tmp309
	movq	%rcx, 40(%rsp)	 # tmp309,
	movl	100(%rbp), %ecx	 # z, tmp310
	movl	%ecx, 32(%rsp)	 # tmp310,
	movq	%rax, %rcx	 # tmp305,
.LEHB1:
	call	_ZN6MATRIX11WriteDataToEjjjRKNS_4cellE	 #
 # src\main.cpp:144: 			cell back_buffer_cell = CHECK_MATRIX_WALLS() ? WriteDataTo(x, y, z, cell(element::Custom)) : WriteDataTo(x, y, z, cell(element::air));
	.loc 14 144 136 is_stmt 0
	jmp	.L194	 #
.L193:
 # src\main.cpp:144: 			cell back_buffer_cell = CHECK_MATRIX_WALLS() ? WriteDataTo(x, y, z, cell(element::Custom)) : WriteDataTo(x, y, z, cell(element::air));
	.loc 14 144 118 is_stmt 1 discriminator 12
	movq	%rbp, %rax	 #, tmp311
	movl	$0, %edx	 #,
	movq	%rax, %rcx	 # tmp311,
	call	_ZN6MATRIX4cellC1ENS_7elementE	 #
 # src\main.cpp:144: 			cell back_buffer_cell = CHECK_MATRIX_WALLS() ? WriteDataTo(x, y, z, cell(element::Custom)) : WriteDataTo(x, y, z, cell(element::air));
	.loc 14 144 136 discriminator 12
	movl	$1, %esi	 #, cleanup.101_170
	leaq	-80(%rbp), %rax	 #, tmp312
	movl	104(%rbp), %r9d	 # y, tmp313
	movl	108(%rbp), %r8d	 # x, tmp314
	movq	192(%rbp), %rdx	 # this, tmp315
	movq	%rbp, %rcx	 #, tmp316
	movq	%rcx, 40(%rsp)	 # tmp316,
	movl	100(%rbp), %ecx	 # z, tmp317
	movl	%ecx, 32(%rsp)	 # tmp317,
	movq	%rax, %rcx	 # tmp312,
	call	_ZN6MATRIX11WriteDataToEjjjRKNS_4cellE	 #
.LEHE1:
.L194:
 # src\main.cpp:144: 			cell back_buffer_cell = CHECK_MATRIX_WALLS() ? WriteDataTo(x, y, z, cell(element::Custom)) : WriteDataTo(x, y, z, cell(element::air));
	.loc 14 144 118 discriminator 15
	testb	%sil, %sil	 # cleanup.101_170
	je	.L195	 #,
 # src\main.cpp:144: 			cell back_buffer_cell = CHECK_MATRIX_WALLS() ? WriteDataTo(x, y, z, cell(element::Custom)) : WriteDataTo(x, y, z, cell(element::air));
	.loc 14 144 118 is_stmt 0 discriminator 16
	movq	%rbp, %rax	 #, tmp318
	movq	%rax, %rcx	 # tmp318,
	call	_ZN6MATRIX4cellD1Ev	 #
.L195:
 # src\main.cpp:144: 			cell back_buffer_cell = CHECK_MATRIX_WALLS() ? WriteDataTo(x, y, z, cell(element::Custom)) : WriteDataTo(x, y, z, cell(element::air));
	.loc 14 144 72 is_stmt 1 discriminator 18
	testb	%bl, %bl	 # cleanup.100_168
	je	.L196	 #,
 # src\main.cpp:144: 			cell back_buffer_cell = CHECK_MATRIX_WALLS() ? WriteDataTo(x, y, z, cell(element::Custom)) : WriteDataTo(x, y, z, cell(element::air));
	.loc 14 144 72 is_stmt 0 discriminator 19
	leaq	-32(%rbp), %rax	 #, tmp319
	movq	%rax, %rcx	 # tmp319,
	call	_ZN6MATRIX4cellD1Ev	 #
.L196:
 # src\main.cpp:145: 		}
	.loc 14 145 3 is_stmt 1 discriminator 21
	leaq	-80(%rbp), %rax	 #, tmp320
	movq	%rax, %rcx	 # tmp320,
	call	_ZN6MATRIX4cellD1Ev	 #
.LBE116:
 # src\main.cpp:140: 		for(uint32_t i=0; i<= width * height * depth -1; ++i)
	.loc 14 140 3 discriminator 21
	addl	$1, 132(%rbp)	 #, i
.L191:
 # src\main.cpp:140: 		for(uint32_t i=0; i<= width * height * depth -1; ++i)
	.loc 14 140 31 discriminator 2
	movl	200(%rbp), %eax	 # width, tmp321
	imull	208(%rbp), %eax	 # height, _35
 # src\main.cpp:140: 		for(uint32_t i=0; i<= width * height * depth -1; ++i)
	.loc 14 140 40 discriminator 2
	imull	216(%rbp), %eax	 # depth, _36
 # src\main.cpp:140: 		for(uint32_t i=0; i<= width * height * depth -1; ++i)
	.loc 14 140 48 discriminator 2
	subl	$1, %eax	 #, _37
 # src\main.cpp:140: 		for(uint32_t i=0; i<= width * height * depth -1; ++i)
	.loc 14 140 22 discriminator 2
	cmpl	132(%rbp), %eax	 # i, _37
	jnb	.L197	 #,
.LBE115:
 # src\main.cpp:147: 		uint32_t i1 = 0;
	.loc 14 147 12
	movl	$0, 128(%rbp)	 #, i1
.LBB118:
 # src\main.cpp:148: 		for(uint32_t i=FlattenedIndex(w >> 1, h >> 1, d >> 1); i<= static_cast<uint32_t>(element::size) -1; ++i)
	.loc 14 148 49
	movq	192(%rbp), %rax	 # this, tmp322
	movl	48(%rax), %eax	 # this_184(D)->d, _38
 # src\main.cpp:148: 		for(uint32_t i=FlattenedIndex(w >> 1, h >> 1, d >> 1); i<= static_cast<uint32_t>(element::size) -1; ++i)
	.loc 14 148 32
	shrl	%eax	 # _38
	movl	%eax, %r8d	 # _38, _39
 # src\main.cpp:148: 		for(uint32_t i=FlattenedIndex(w >> 1, h >> 1, d >> 1); i<= static_cast<uint32_t>(element::size) -1; ++i)
	.loc 14 148 41
	movq	192(%rbp), %rax	 # this, tmp323
	movl	44(%rax), %eax	 # this_184(D)->h, _40
 # src\main.cpp:148: 		for(uint32_t i=FlattenedIndex(w >> 1, h >> 1, d >> 1); i<= static_cast<uint32_t>(element::size) -1; ++i)
	.loc 14 148 32
	shrl	%eax	 # _40
	movl	%eax, %ecx	 # _40, _41
 # src\main.cpp:148: 		for(uint32_t i=FlattenedIndex(w >> 1, h >> 1, d >> 1); i<= static_cast<uint32_t>(element::size) -1; ++i)
	.loc 14 148 33
	movq	192(%rbp), %rax	 # this, tmp324
	movl	40(%rax), %eax	 # this_184(D)->w, _42
 # src\main.cpp:148: 		for(uint32_t i=FlattenedIndex(w >> 1, h >> 1, d >> 1); i<= static_cast<uint32_t>(element::size) -1; ++i)
	.loc 14 148 32
	shrl	%eax	 # _42
	movl	%eax, %edx	 # _42, _43
	movq	192(%rbp), %rax	 # this, tmp325
	movl	%r8d, %r9d	 # _39,
	movl	%ecx, %r8d	 # _41,
	movq	%rax, %rcx	 # tmp325,
	call	_ZN6MATRIX14FlattenedIndexEjjj	 #
	movl	%eax, 124(%rbp)	 # tmp326, i
 # src\main.cpp:148: 		for(uint32_t i=FlattenedIndex(w >> 1, h >> 1, d >> 1); i<= static_cast<uint32_t>(element::size) -1; ++i)
	.loc 14 148 3
	jmp	.L198	 #
.L199:
.LBB119:
 # src\main.cpp:151: 			uint32_t x = i % w; uint32_t y = (i / w) % h; uint32_t z = i / (w * h);
	.loc 14 151 21
	movq	192(%rbp), %rax	 # this, tmp327
	movl	40(%rax), %ecx	 # this_184(D)->w, _44
 # src\main.cpp:151: 			uint32_t x = i % w; uint32_t y = (i / w) % h; uint32_t z = i / (w * h);
	.loc 14 151 13
	movl	124(%rbp), %eax	 # i, tmp329
	movl	$0, %edx	 #, tmp330
	divl	%ecx	 # _44
	movl	%edx, 120(%rbp)	 # tmp330, x
 # src\main.cpp:151: 			uint32_t x = i % w; uint32_t y = (i / w) % h; uint32_t z = i / (w * h);
	.loc 14 151 42
	movq	192(%rbp), %rax	 # this, tmp332
	movl	40(%rax), %ebx	 # this_184(D)->w, _45
 # src\main.cpp:151: 			uint32_t x = i % w; uint32_t y = (i / w) % h; uint32_t z = i / (w * h);
	.loc 14 151 40
	movl	124(%rbp), %eax	 # i, tmp335
	movl	$0, %edx	 #, tmp334
	divl	%ebx	 # _45
	movl	%eax, %edx	 # tmp333, _46
 # src\main.cpp:151: 			uint32_t x = i % w; uint32_t y = (i / w) % h; uint32_t z = i / (w * h);
	.loc 14 151 47
	movq	192(%rbp), %rax	 # this, tmp336
	movl	44(%rax), %ecx	 # this_184(D)->h, _47
 # src\main.cpp:151: 			uint32_t x = i % w; uint32_t y = (i / w) % h; uint32_t z = i / (w * h);
	.loc 14 151 33
	movl	%edx, %eax	 # _46, _46
	movl	$0, %edx	 #, tmp337
	divl	%ecx	 # _47
	movl	%edx, 116(%rbp)	 # tmp337, y
 # src\main.cpp:151: 			uint32_t x = i % w; uint32_t y = (i / w) % h; uint32_t z = i / (w * h);
	.loc 14 151 68
	movq	192(%rbp), %rax	 # this, tmp339
	movl	40(%rax), %edx	 # this_184(D)->w, _48
 # src\main.cpp:151: 			uint32_t x = i % w; uint32_t y = (i / w) % h; uint32_t z = i / (w * h);
	.loc 14 151 72
	movq	192(%rbp), %rax	 # this, tmp340
	movl	44(%rax), %eax	 # this_184(D)->h, _49
 # src\main.cpp:151: 			uint32_t x = i % w; uint32_t y = (i / w) % h; uint32_t z = i / (w * h);
	.loc 14 151 70
	movl	%edx, %esi	 # _48, _48
	imull	%eax, %esi	 # _49, _48
 # src\main.cpp:151: 			uint32_t x = i % w; uint32_t y = (i / w) % h; uint32_t z = i / (w * h);
	.loc 14 151 59
	movl	124(%rbp), %eax	 # i, tmp343
	movl	$0, %edx	 #, tmp342
	divl	%esi	 # _50
	movl	%eax, 112(%rbp)	 # tmp341, z
 # src\main.cpp:152: 			WriteDataTo(x, y, z, cell(static_cast<element>(i - FlattenedIndex(w >> 1, h >> 1, d >> 1)))); ++i1;
	.loc 14 152 86
	movq	192(%rbp), %rax	 # this, tmp344
	movl	48(%rax), %eax	 # this_184(D)->d, _51
 # src\main.cpp:152: 			WriteDataTo(x, y, z, cell(static_cast<element>(i - FlattenedIndex(w >> 1, h >> 1, d >> 1)))); ++i1;
	.loc 14 152 69
	shrl	%eax	 # _51
	movl	%eax, %r8d	 # _51, _52
 # src\main.cpp:152: 			WriteDataTo(x, y, z, cell(static_cast<element>(i - FlattenedIndex(w >> 1, h >> 1, d >> 1)))); ++i1;
	.loc 14 152 78
	movq	192(%rbp), %rax	 # this, tmp345
	movl	44(%rax), %eax	 # this_184(D)->h, _53
 # src\main.cpp:152: 			WriteDataTo(x, y, z, cell(static_cast<element>(i - FlattenedIndex(w >> 1, h >> 1, d >> 1)))); ++i1;
	.loc 14 152 69
	shrl	%eax	 # _53
	movl	%eax, %ecx	 # _53, _54
 # src\main.cpp:152: 			WriteDataTo(x, y, z, cell(static_cast<element>(i - FlattenedIndex(w >> 1, h >> 1, d >> 1)))); ++i1;
	.loc 14 152 70
	movq	192(%rbp), %rax	 # this, tmp346
	movl	40(%rax), %eax	 # this_184(D)->w, _55
 # src\main.cpp:152: 			WriteDataTo(x, y, z, cell(static_cast<element>(i - FlattenedIndex(w >> 1, h >> 1, d >> 1)))); ++i1;
	.loc 14 152 69
	shrl	%eax	 # _55
	movl	%eax, %edx	 # _55, _56
	movq	192(%rbp), %rax	 # this, tmp347
	movl	%r8d, %r9d	 # _52,
	movl	%ecx, %r8d	 # _54,
	movq	%rax, %rcx	 # tmp347,
	call	_ZN6MATRIX14FlattenedIndexEjjj	 #
 # src\main.cpp:152: 			WriteDataTo(x, y, z, cell(static_cast<element>(i - FlattenedIndex(w >> 1, h >> 1, d >> 1)))); ++i1;
	.loc 14 152 53
	movl	124(%rbp), %edx	 # i, tmp348
	subl	%eax, %edx	 # _57, _58
 # src\main.cpp:152: 			WriteDataTo(x, y, z, cell(static_cast<element>(i - FlattenedIndex(w >> 1, h >> 1, d >> 1)))); ++i1;
	.loc 14 152 25
	leaq	64(%rbp), %rax	 #, tmp349
	movq	%rax, %rcx	 # tmp349,
	call	_ZN6MATRIX4cellC1ENS_7elementE	 #
 # src\main.cpp:152: 			WriteDataTo(x, y, z, cell(static_cast<element>(i - FlattenedIndex(w >> 1, h >> 1, d >> 1)))); ++i1;
	.loc 14 152 15
	leaq	32(%rbp), %rax	 #, tmp350
	movl	116(%rbp), %r9d	 # y, tmp351
	movl	120(%rbp), %r8d	 # x, tmp352
	movq	192(%rbp), %rdx	 # this, tmp353
	leaq	64(%rbp), %rcx	 #, tmp354
	movq	%rcx, 40(%rsp)	 # tmp354,
	movl	112(%rbp), %ecx	 # z, tmp355
	movl	%ecx, 32(%rsp)	 # tmp355,
	movq	%rax, %rcx	 # tmp350,
.LEHB2:
	call	_ZN6MATRIX11WriteDataToEjjjRKNS_4cellE	 #
.LEHE2:
 # src\main.cpp:152: 			WriteDataTo(x, y, z, cell(static_cast<element>(i - FlattenedIndex(w >> 1, h >> 1, d >> 1)))); ++i1;
	.loc 14 152 15 is_stmt 0 discriminator 2
	leaq	32(%rbp), %rax	 #, tmp356
	movq	%rax, %rcx	 # tmp356,
	call	_ZN6MATRIX4cellD1Ev	 #
 # src\main.cpp:152: 			WriteDataTo(x, y, z, cell(static_cast<element>(i - FlattenedIndex(w >> 1, h >> 1, d >> 1)))); ++i1;
	.loc 14 152 25 is_stmt 1 discriminator 2
	leaq	64(%rbp), %rax	 #, tmp357
	movq	%rax, %rcx	 # tmp357,
	call	_ZN6MATRIX4cellD1Ev	 #
 # src\main.cpp:152: 			WriteDataTo(x, y, z, cell(static_cast<element>(i - FlattenedIndex(w >> 1, h >> 1, d >> 1)))); ++i1;
	.loc 14 152 98 discriminator 2
	addl	$1, 128(%rbp)	 #, i1
.LBE119:
 # src\main.cpp:148: 		for(uint32_t i=FlattenedIndex(w >> 1, h >> 1, d >> 1); i<= static_cast<uint32_t>(element::size) -1; ++i)
	.loc 14 148 3 discriminator 2
	addl	$1, 124(%rbp)	 #, i
.L198:
 # src\main.cpp:148: 		for(uint32_t i=FlattenedIndex(w >> 1, h >> 1, d >> 1); i<= static_cast<uint32_t>(element::size) -1; ++i)
	.loc 14 148 59 discriminator 2
	cmpl	$5, 124(%rbp)	 #, i
	jbe	.L199	 #,
.LBE118:
 # src\main.cpp:156: 		printf("-> elements::name... \n");
	.loc 14 156 9
	leaq	.LC3(%rip), %rax	 #, tmp358
	movq	%rax, %rcx	 # tmp358,
.LEHB3:
	call	_Z6printfPKcz	 #
 # src\main.cpp:157: 		matAtt[static_cast<uint32_t>(element::air)   ].name 			   = "air";
	.loc 14 157 48
	movq	192(%rbp), %rax	 # this, tmp359
	addq	$32, %rax	 #, _59
	movl	$0, %edx	 #,
	movq	%rax, %rcx	 # _59,
	call	_ZNKSt10unique_ptrIA_N6MATRIX18MaterialAttributesESt14default_deleteIS2_EEixEy	 #
 # src\main.cpp:157: 		matAtt[static_cast<uint32_t>(element::air)   ].name 			   = "air";
	.loc 14 157 61
	leaq	.LC4(%rip), %rdx	 #, tmp360
	movq	%rdx, 32(%rax)	 # tmp360, _60->name
 # src\main.cpp:158: 		matAtt[static_cast<uint32_t>(element::water) ].name 			   = "water";
	.loc 14 158 48
	movq	192(%rbp), %rax	 # this, tmp361
	addq	$32, %rax	 #, _61
	movl	$1, %edx	 #,
	movq	%rax, %rcx	 # _61,
	call	_ZNKSt10unique_ptrIA_N6MATRIX18MaterialAttributesESt14default_deleteIS2_EEixEy	 #
 # src\main.cpp:158: 		matAtt[static_cast<uint32_t>(element::water) ].name 			   = "water";
	.loc 14 158 61
	leaq	.LC5(%rip), %rdx	 #, tmp362
	movq	%rdx, 32(%rax)	 # tmp362, _62->name
 # src\main.cpp:159: 		matAtt[static_cast<uint32_t>(element::wood)  ].name 			   = "wood";
	.loc 14 159 48
	movq	192(%rbp), %rax	 # this, tmp363
	addq	$32, %rax	 #, _63
	movl	$2, %edx	 #,
	movq	%rax, %rcx	 # _63,
	call	_ZNKSt10unique_ptrIA_N6MATRIX18MaterialAttributesESt14default_deleteIS2_EEixEy	 #
 # src\main.cpp:159: 		matAtt[static_cast<uint32_t>(element::wood)  ].name 			   = "wood";
	.loc 14 159 61
	leaq	.LC6(%rip), %rdx	 #, tmp364
	movq	%rdx, 32(%rax)	 # tmp364, _64->name
 # src\main.cpp:160: 		matAtt[static_cast<uint32_t>(element::fire)  ].name 			   = "fire";
	.loc 14 160 48
	movq	192(%rbp), %rax	 # this, tmp365
	addq	$32, %rax	 #, _65
	movl	$3, %edx	 #,
	movq	%rax, %rcx	 # _65,
	call	_ZNKSt10unique_ptrIA_N6MATRIX18MaterialAttributesESt14default_deleteIS2_EEixEy	 #
 # src\main.cpp:160: 		matAtt[static_cast<uint32_t>(element::fire)  ].name 			   = "fire";
	.loc 14 160 61
	leaq	.LC7(%rip), %rdx	 #, tmp366
	movq	%rdx, 32(%rax)	 # tmp366, _66->name
 # src\main.cpp:161: 		matAtt[static_cast<uint32_t>(element::metal) ].name 			   = "metal";
	.loc 14 161 48
	movq	192(%rbp), %rax	 # this, tmp367
	addq	$32, %rax	 #, _67
	movl	$4, %edx	 #,
	movq	%rax, %rcx	 # _67,
	call	_ZNKSt10unique_ptrIA_N6MATRIX18MaterialAttributesESt14default_deleteIS2_EEixEy	 #
 # src\main.cpp:161: 		matAtt[static_cast<uint32_t>(element::metal) ].name 			   = "metal";
	.loc 14 161 61
	leaq	.LC8(%rip), %rdx	 #, tmp368
	movq	%rdx, 32(%rax)	 # tmp368, _68->name
 # src\main.cpp:162: 		matAtt[static_cast<uint32_t>(element::Custom)].name 			   = "Custom";
	.loc 14 162 48
	movq	192(%rbp), %rax	 # this, tmp369
	addq	$32, %rax	 #, _69
	movl	$5, %edx	 #,
	movq	%rax, %rcx	 # _69,
	call	_ZNKSt10unique_ptrIA_N6MATRIX18MaterialAttributesESt14default_deleteIS2_EEixEy	 #
 # src\main.cpp:162: 		matAtt[static_cast<uint32_t>(element::Custom)].name 			   = "Custom";
	.loc 14 162 61
	leaq	.LC9(%rip), %rdx	 #, tmp370
	movq	%rdx, 32(%rax)	 # tmp370, _70->name
 # src\main.cpp:164: 		printf("-> elements::density... \n");
	.loc 14 164 9
	leaq	.LC10(%rip), %rax	 #, tmp371
	movq	%rax, %rcx	 # tmp371,
	call	_Z6printfPKcz	 #
 # src\main.cpp:165: 		matAtt[static_cast<uint32_t>(element::air)   ].density 			   = 1.225f;
	.loc 14 165 48
	movq	192(%rbp), %rax	 # this, tmp372
	addq	$32, %rax	 #, _71
	movl	$0, %edx	 #,
	movq	%rax, %rcx	 # _71,
	call	_ZNKSt10unique_ptrIA_N6MATRIX18MaterialAttributesESt14default_deleteIS2_EEixEy	 #
 # src\main.cpp:165: 		matAtt[static_cast<uint32_t>(element::air)   ].density 			   = 1.225f;
	.loc 14 165 64
	movss	.LC11(%rip), %xmm0	 #, tmp373
	movss	%xmm0, (%rax)	 # tmp373, _72->density
 # src\main.cpp:166: 		matAtt[static_cast<uint32_t>(element::water) ].density 			   = 1000.0f;
	.loc 14 166 48
	movq	192(%rbp), %rax	 # this, tmp374
	addq	$32, %rax	 #, _73
	movl	$1, %edx	 #,
	movq	%rax, %rcx	 # _73,
	call	_ZNKSt10unique_ptrIA_N6MATRIX18MaterialAttributesESt14default_deleteIS2_EEixEy	 #
 # src\main.cpp:166: 		matAtt[static_cast<uint32_t>(element::water) ].density 			   = 1000.0f;
	.loc 14 166 64
	movss	.LC12(%rip), %xmm0	 #, tmp375
	movss	%xmm0, (%rax)	 # tmp375, _74->density
 # src\main.cpp:167: 		matAtt[static_cast<uint32_t>(element::wood)  ].density 			   = 700.0f;
	.loc 14 167 48
	movq	192(%rbp), %rax	 # this, tmp376
	addq	$32, %rax	 #, _75
	movl	$2, %edx	 #,
	movq	%rax, %rcx	 # _75,
	call	_ZNKSt10unique_ptrIA_N6MATRIX18MaterialAttributesESt14default_deleteIS2_EEixEy	 #
 # src\main.cpp:167: 		matAtt[static_cast<uint32_t>(element::wood)  ].density 			   = 700.0f;
	.loc 14 167 64
	movss	.LC13(%rip), %xmm0	 #, tmp377
	movss	%xmm0, (%rax)	 # tmp377, _76->density
 # src\main.cpp:168: 		matAtt[static_cast<uint32_t>(element::fire)  ].density 			   = 0.0f;
	.loc 14 168 48
	movq	192(%rbp), %rax	 # this, tmp378
	addq	$32, %rax	 #, _77
	movl	$3, %edx	 #,
	movq	%rax, %rcx	 # _77,
	call	_ZNKSt10unique_ptrIA_N6MATRIX18MaterialAttributesESt14default_deleteIS2_EEixEy	 #
 # src\main.cpp:168: 		matAtt[static_cast<uint32_t>(element::fire)  ].density 			   = 0.0f;
	.loc 14 168 64
	pxor	%xmm0, %xmm0	 # tmp379
	movss	%xmm0, (%rax)	 # tmp379, _78->density
 # src\main.cpp:169: 		matAtt[static_cast<uint32_t>(element::metal) ].density 			   = 7800.0f;
	.loc 14 169 48
	movq	192(%rbp), %rax	 # this, tmp380
	addq	$32, %rax	 #, _79
	movl	$4, %edx	 #,
	movq	%rax, %rcx	 # _79,
	call	_ZNKSt10unique_ptrIA_N6MATRIX18MaterialAttributesESt14default_deleteIS2_EEixEy	 #
 # src\main.cpp:169: 		matAtt[static_cast<uint32_t>(element::metal) ].density 			   = 7800.0f;
	.loc 14 169 64
	movss	.LC14(%rip), %xmm0	 #, tmp381
	movss	%xmm0, (%rax)	 # tmp381, _80->density
 # src\main.cpp:170: 		matAtt[static_cast<uint32_t>(element::Custom)].density 			   = 0.0f;
	.loc 14 170 48
	movq	192(%rbp), %rax	 # this, tmp382
	addq	$32, %rax	 #, _81
	movl	$5, %edx	 #,
	movq	%rax, %rcx	 # _81,
	call	_ZNKSt10unique_ptrIA_N6MATRIX18MaterialAttributesESt14default_deleteIS2_EEixEy	 #
 # src\main.cpp:170: 		matAtt[static_cast<uint32_t>(element::Custom)].density 			   = 0.0f;
	.loc 14 170 64
	pxor	%xmm0, %xmm0	 # tmp383
	movss	%xmm0, (%rax)	 # tmp383, _82->density
 # src\main.cpp:172: 		printf("-> elements::friction... \n");
	.loc 14 172 9
	leaq	.LC15(%rip), %rax	 #, tmp384
	movq	%rax, %rcx	 # tmp384,
	call	_Z6printfPKcz	 #
 # src\main.cpp:173: 		matAtt[static_cast<uint32_t>(element::air)   ].friction 		   = 0.02f;
	.loc 14 173 48
	movq	192(%rbp), %rax	 # this, tmp385
	addq	$32, %rax	 #, _83
	movl	$0, %edx	 #,
	movq	%rax, %rcx	 # _83,
	call	_ZNKSt10unique_ptrIA_N6MATRIX18MaterialAttributesESt14default_deleteIS2_EEixEy	 #
 # src\main.cpp:173: 		matAtt[static_cast<uint32_t>(element::air)   ].friction 		   = 0.02f;
	.loc 14 173 64
	movss	.LC16(%rip), %xmm0	 #, tmp386
	movss	%xmm0, 4(%rax)	 # tmp386, _84->friction
 # src\main.cpp:174: 		matAtt[static_cast<uint32_t>(element::water) ].friction 		   = 0.1f;
	.loc 14 174 48
	movq	192(%rbp), %rax	 # this, tmp387
	addq	$32, %rax	 #, _85
	movl	$1, %edx	 #,
	movq	%rax, %rcx	 # _85,
	call	_ZNKSt10unique_ptrIA_N6MATRIX18MaterialAttributesESt14default_deleteIS2_EEixEy	 #
 # src\main.cpp:174: 		matAtt[static_cast<uint32_t>(element::water) ].friction 		   = 0.1f;
	.loc 14 174 64
	movss	.LC17(%rip), %xmm0	 #, tmp388
	movss	%xmm0, 4(%rax)	 # tmp388, _86->friction
 # src\main.cpp:175: 		matAtt[static_cast<uint32_t>(element::wood)  ].friction 		   = 0.4f;
	.loc 14 175 48
	movq	192(%rbp), %rax	 # this, tmp389
	addq	$32, %rax	 #, _87
	movl	$2, %edx	 #,
	movq	%rax, %rcx	 # _87,
	call	_ZNKSt10unique_ptrIA_N6MATRIX18MaterialAttributesESt14default_deleteIS2_EEixEy	 #
 # src\main.cpp:175: 		matAtt[static_cast<uint32_t>(element::wood)  ].friction 		   = 0.4f;
	.loc 14 175 64
	movss	.LC18(%rip), %xmm0	 #, tmp390
	movss	%xmm0, 4(%rax)	 # tmp390, _88->friction
 # src\main.cpp:176: 		matAtt[static_cast<uint32_t>(element::fire)  ].friction 		   = 0.0f;
	.loc 14 176 48
	movq	192(%rbp), %rax	 # this, tmp391
	addq	$32, %rax	 #, _89
	movl	$3, %edx	 #,
	movq	%rax, %rcx	 # _89,
	call	_ZNKSt10unique_ptrIA_N6MATRIX18MaterialAttributesESt14default_deleteIS2_EEixEy	 #
 # src\main.cpp:176: 		matAtt[static_cast<uint32_t>(element::fire)  ].friction 		   = 0.0f;
	.loc 14 176 64
	pxor	%xmm0, %xmm0	 # tmp392
	movss	%xmm0, 4(%rax)	 # tmp392, _90->friction
 # src\main.cpp:177: 		matAtt[static_cast<uint32_t>(element::metal) ].friction 		   = 0.6f;
	.loc 14 177 48
	movq	192(%rbp), %rax	 # this, tmp393
	addq	$32, %rax	 #, _91
	movl	$4, %edx	 #,
	movq	%rax, %rcx	 # _91,
	call	_ZNKSt10unique_ptrIA_N6MATRIX18MaterialAttributesESt14default_deleteIS2_EEixEy	 #
 # src\main.cpp:177: 		matAtt[static_cast<uint32_t>(element::metal) ].friction 		   = 0.6f;
	.loc 14 177 64
	movss	.LC19(%rip), %xmm0	 #, tmp394
	movss	%xmm0, 4(%rax)	 # tmp394, _92->friction
 # src\main.cpp:178: 		matAtt[static_cast<uint32_t>(element::Custom)].friction 		   = 0.0f;
	.loc 14 178 48
	movq	192(%rbp), %rax	 # this, tmp395
	addq	$32, %rax	 #, _93
	movl	$5, %edx	 #,
	movq	%rax, %rcx	 # _93,
	call	_ZNKSt10unique_ptrIA_N6MATRIX18MaterialAttributesESt14default_deleteIS2_EEixEy	 #
 # src\main.cpp:178: 		matAtt[static_cast<uint32_t>(element::Custom)].friction 		   = 0.0f;
	.loc 14 178 64
	pxor	%xmm0, %xmm0	 # tmp396
	movss	%xmm0, 4(%rax)	 # tmp396, _94->friction
 # src\main.cpp:180: 		printf("-> elements::ThermalConductivity... \n");
	.loc 14 180 9
	leaq	.LC20(%rip), %rax	 #, tmp397
	movq	%rax, %rcx	 # tmp397,
	call	_Z6printfPKcz	 #
 # src\main.cpp:181: 		matAtt[static_cast<uint32_t>(element::air)   ].thermalConductivity = 0.025f;
	.loc 14 181 48
	movq	192(%rbp), %rax	 # this, tmp398
	addq	$32, %rax	 #, _95
	movl	$0, %edx	 #,
	movq	%rax, %rcx	 # _95,
	call	_ZNKSt10unique_ptrIA_N6MATRIX18MaterialAttributesESt14default_deleteIS2_EEixEy	 #
 # src\main.cpp:181: 		matAtt[static_cast<uint32_t>(element::air)   ].thermalConductivity = 0.025f;
	.loc 14 181 70
	movss	.LC21(%rip), %xmm0	 #, tmp399
	movss	%xmm0, 8(%rax)	 # tmp399, _96->thermalConductivity
 # src\main.cpp:182: 		matAtt[static_cast<uint32_t>(element::water) ].thermalConductivity = 0.6f;
	.loc 14 182 48
	movq	192(%rbp), %rax	 # this, tmp400
	addq	$32, %rax	 #, _97
	movl	$1, %edx	 #,
	movq	%rax, %rcx	 # _97,
	call	_ZNKSt10unique_ptrIA_N6MATRIX18MaterialAttributesESt14default_deleteIS2_EEixEy	 #
 # src\main.cpp:182: 		matAtt[static_cast<uint32_t>(element::water) ].thermalConductivity = 0.6f;
	.loc 14 182 70
	movss	.LC19(%rip), %xmm0	 #, tmp401
	movss	%xmm0, 8(%rax)	 # tmp401, _98->thermalConductivity
 # src\main.cpp:183: 		matAtt[static_cast<uint32_t>(element::wood)  ].thermalConductivity = 0.12f;
	.loc 14 183 48
	movq	192(%rbp), %rax	 # this, tmp402
	addq	$32, %rax	 #, _99
	movl	$2, %edx	 #,
	movq	%rax, %rcx	 # _99,
	call	_ZNKSt10unique_ptrIA_N6MATRIX18MaterialAttributesESt14default_deleteIS2_EEixEy	 #
 # src\main.cpp:183: 		matAtt[static_cast<uint32_t>(element::wood)  ].thermalConductivity = 0.12f;
	.loc 14 183 70
	movss	.LC22(%rip), %xmm0	 #, tmp403
	movss	%xmm0, 8(%rax)	 # tmp403, _100->thermalConductivity
 # src\main.cpp:184: 		matAtt[static_cast<uint32_t>(element::fire)  ].thermalConductivity = 0.0f;
	.loc 14 184 48
	movq	192(%rbp), %rax	 # this, tmp404
	addq	$32, %rax	 #, _101
	movl	$3, %edx	 #,
	movq	%rax, %rcx	 # _101,
	call	_ZNKSt10unique_ptrIA_N6MATRIX18MaterialAttributesESt14default_deleteIS2_EEixEy	 #
 # src\main.cpp:184: 		matAtt[static_cast<uint32_t>(element::fire)  ].thermalConductivity = 0.0f;
	.loc 14 184 70
	pxor	%xmm0, %xmm0	 # tmp405
	movss	%xmm0, 8(%rax)	 # tmp405, _102->thermalConductivity
 # src\main.cpp:185: 		matAtt[static_cast<uint32_t>(element::metal) ].thermalConductivity = 400.0f;
	.loc 14 185 48
	movq	192(%rbp), %rax	 # this, tmp406
	addq	$32, %rax	 #, _103
	movl	$4, %edx	 #,
	movq	%rax, %rcx	 # _103,
	call	_ZNKSt10unique_ptrIA_N6MATRIX18MaterialAttributesESt14default_deleteIS2_EEixEy	 #
 # src\main.cpp:185: 		matAtt[static_cast<uint32_t>(element::metal) ].thermalConductivity = 400.0f;
	.loc 14 185 70
	movss	.LC23(%rip), %xmm0	 #, tmp407
	movss	%xmm0, 8(%rax)	 # tmp407, _104->thermalConductivity
 # src\main.cpp:186: 		matAtt[static_cast<uint32_t>(element::Custom)].thermalConductivity = 0.0f;
	.loc 14 186 48
	movq	192(%rbp), %rax	 # this, tmp408
	addq	$32, %rax	 #, _105
	movl	$5, %edx	 #,
	movq	%rax, %rcx	 # _105,
	call	_ZNKSt10unique_ptrIA_N6MATRIX18MaterialAttributesESt14default_deleteIS2_EEixEy	 #
 # src\main.cpp:186: 		matAtt[static_cast<uint32_t>(element::Custom)].thermalConductivity = 0.0f;
	.loc 14 186 70
	pxor	%xmm0, %xmm0	 # tmp409
	movss	%xmm0, 8(%rax)	 # tmp409, _106->thermalConductivity
 # src\main.cpp:188: 		printf("-> elements::specificHeat... \n");
	.loc 14 188 9
	leaq	.LC24(%rip), %rax	 #, tmp410
	movq	%rax, %rcx	 # tmp410,
	call	_Z6printfPKcz	 #
 # src\main.cpp:189: 		matAtt[static_cast<uint32_t>(element::air)   ].specificHeat 	   = 1005.0f;
	.loc 14 189 48
	movq	192(%rbp), %rax	 # this, tmp411
	addq	$32, %rax	 #, _107
	movl	$0, %edx	 #,
	movq	%rax, %rcx	 # _107,
	call	_ZNKSt10unique_ptrIA_N6MATRIX18MaterialAttributesESt14default_deleteIS2_EEixEy	 #
 # src\main.cpp:189: 		matAtt[static_cast<uint32_t>(element::air)   ].specificHeat 	   = 1005.0f;
	.loc 14 189 67
	movss	.LC25(%rip), %xmm0	 #, tmp412
	movss	%xmm0, 12(%rax)	 # tmp412, _108->specificHeat
 # src\main.cpp:190: 		matAtt[static_cast<uint32_t>(element::water) ].specificHeat 	   = 4186.0f;
	.loc 14 190 48
	movq	192(%rbp), %rax	 # this, tmp413
	addq	$32, %rax	 #, _109
	movl	$1, %edx	 #,
	movq	%rax, %rcx	 # _109,
	call	_ZNKSt10unique_ptrIA_N6MATRIX18MaterialAttributesESt14default_deleteIS2_EEixEy	 #
 # src\main.cpp:190: 		matAtt[static_cast<uint32_t>(element::water) ].specificHeat 	   = 4186.0f;
	.loc 14 190 67
	movss	.LC26(%rip), %xmm0	 #, tmp414
	movss	%xmm0, 12(%rax)	 # tmp414, _110->specificHeat
 # src\main.cpp:191: 		matAtt[static_cast<uint32_t>(element::wood)  ].specificHeat 	   = 2400.0f;
	.loc 14 191 48
	movq	192(%rbp), %rax	 # this, tmp415
	addq	$32, %rax	 #, _111
	movl	$2, %edx	 #,
	movq	%rax, %rcx	 # _111,
	call	_ZNKSt10unique_ptrIA_N6MATRIX18MaterialAttributesESt14default_deleteIS2_EEixEy	 #
 # src\main.cpp:191: 		matAtt[static_cast<uint32_t>(element::wood)  ].specificHeat 	   = 2400.0f;
	.loc 14 191 67
	movss	.LC27(%rip), %xmm0	 #, tmp416
	movss	%xmm0, 12(%rax)	 # tmp416, _112->specificHeat
 # src\main.cpp:192: 		matAtt[static_cast<uint32_t>(element::fire)  ].specificHeat 	   = 0.0f;
	.loc 14 192 48
	movq	192(%rbp), %rax	 # this, tmp417
	addq	$32, %rax	 #, _113
	movl	$3, %edx	 #,
	movq	%rax, %rcx	 # _113,
	call	_ZNKSt10unique_ptrIA_N6MATRIX18MaterialAttributesESt14default_deleteIS2_EEixEy	 #
 # src\main.cpp:192: 		matAtt[static_cast<uint32_t>(element::fire)  ].specificHeat 	   = 0.0f;
	.loc 14 192 67
	pxor	%xmm0, %xmm0	 # tmp418
	movss	%xmm0, 12(%rax)	 # tmp418, _114->specificHeat
 # src\main.cpp:193: 		matAtt[static_cast<uint32_t>(element::metal) ].specificHeat 	   = 450.0f;
	.loc 14 193 48
	movq	192(%rbp), %rax	 # this, tmp419
	addq	$32, %rax	 #, _115
	movl	$4, %edx	 #,
	movq	%rax, %rcx	 # _115,
	call	_ZNKSt10unique_ptrIA_N6MATRIX18MaterialAttributesESt14default_deleteIS2_EEixEy	 #
 # src\main.cpp:193: 		matAtt[static_cast<uint32_t>(element::metal) ].specificHeat 	   = 450.0f;
	.loc 14 193 67
	movss	.LC28(%rip), %xmm0	 #, tmp420
	movss	%xmm0, 12(%rax)	 # tmp420, _116->specificHeat
 # src\main.cpp:194: 		matAtt[static_cast<uint32_t>(element::Custom)].specificHeat 	   = 0.0f;
	.loc 14 194 48
	movq	192(%rbp), %rax	 # this, tmp421
	addq	$32, %rax	 #, _117
	movl	$5, %edx	 #,
	movq	%rax, %rcx	 # _117,
	call	_ZNKSt10unique_ptrIA_N6MATRIX18MaterialAttributesESt14default_deleteIS2_EEixEy	 #
 # src\main.cpp:194: 		matAtt[static_cast<uint32_t>(element::Custom)].specificHeat 	   = 0.0f;
	.loc 14 194 67
	pxor	%xmm0, %xmm0	 # tmp422
	movss	%xmm0, 12(%rax)	 # tmp422, _118->specificHeat
 # src\main.cpp:196: 		printf("-> elements::restitution... \n");
	.loc 14 196 9
	leaq	.LC29(%rip), %rax	 #, tmp423
	movq	%rax, %rcx	 # tmp423,
	call	_Z6printfPKcz	 #
 # src\main.cpp:197: 		matAtt[static_cast<uint32_t>(element::air)   ].restitution 		   = 0.0f;
	.loc 14 197 48
	movq	192(%rbp), %rax	 # this, tmp424
	addq	$32, %rax	 #, _119
	movl	$0, %edx	 #,
	movq	%rax, %rcx	 # _119,
	call	_ZNKSt10unique_ptrIA_N6MATRIX18MaterialAttributesESt14default_deleteIS2_EEixEy	 #
 # src\main.cpp:197: 		matAtt[static_cast<uint32_t>(element::air)   ].restitution 		   = 0.0f;
	.loc 14 197 67
	pxor	%xmm0, %xmm0	 # tmp425
	movss	%xmm0, 16(%rax)	 # tmp425, _120->restitution
 # src\main.cpp:198: 		matAtt[static_cast<uint32_t>(element::water) ].restitution 		   = 0.1f;
	.loc 14 198 48
	movq	192(%rbp), %rax	 # this, tmp426
	addq	$32, %rax	 #, _121
	movl	$1, %edx	 #,
	movq	%rax, %rcx	 # _121,
	call	_ZNKSt10unique_ptrIA_N6MATRIX18MaterialAttributesESt14default_deleteIS2_EEixEy	 #
 # src\main.cpp:198: 		matAtt[static_cast<uint32_t>(element::water) ].restitution 		   = 0.1f;
	.loc 14 198 67
	movss	.LC17(%rip), %xmm0	 #, tmp427
	movss	%xmm0, 16(%rax)	 # tmp427, _122->restitution
 # src\main.cpp:199: 		matAtt[static_cast<uint32_t>(element::wood)  ].restitution 		   = 0.3f;
	.loc 14 199 48
	movq	192(%rbp), %rax	 # this, tmp428
	addq	$32, %rax	 #, _123
	movl	$2, %edx	 #,
	movq	%rax, %rcx	 # _123,
	call	_ZNKSt10unique_ptrIA_N6MATRIX18MaterialAttributesESt14default_deleteIS2_EEixEy	 #
 # src\main.cpp:199: 		matAtt[static_cast<uint32_t>(element::wood)  ].restitution 		   = 0.3f;
	.loc 14 199 67
	movss	.LC30(%rip), %xmm0	 #, tmp429
	movss	%xmm0, 16(%rax)	 # tmp429, _124->restitution
 # src\main.cpp:200: 		matAtt[static_cast<uint32_t>(element::fire)  ].restitution 		   = 0.0f;
	.loc 14 200 48
	movq	192(%rbp), %rax	 # this, tmp430
	addq	$32, %rax	 #, _125
	movl	$3, %edx	 #,
	movq	%rax, %rcx	 # _125,
	call	_ZNKSt10unique_ptrIA_N6MATRIX18MaterialAttributesESt14default_deleteIS2_EEixEy	 #
 # src\main.cpp:200: 		matAtt[static_cast<uint32_t>(element::fire)  ].restitution 		   = 0.0f;
	.loc 14 200 67
	pxor	%xmm0, %xmm0	 # tmp431
	movss	%xmm0, 16(%rax)	 # tmp431, _126->restitution
 # src\main.cpp:201: 		matAtt[static_cast<uint32_t>(element::metal) ].restitution 		   = 0.9f;
	.loc 14 201 48
	movq	192(%rbp), %rax	 # this, tmp432
	addq	$32, %rax	 #, _127
	movl	$4, %edx	 #,
	movq	%rax, %rcx	 # _127,
	call	_ZNKSt10unique_ptrIA_N6MATRIX18MaterialAttributesESt14default_deleteIS2_EEixEy	 #
 # src\main.cpp:201: 		matAtt[static_cast<uint32_t>(element::metal) ].restitution 		   = 0.9f;
	.loc 14 201 67
	movss	.LC31(%rip), %xmm0	 #, tmp433
	movss	%xmm0, 16(%rax)	 # tmp433, _128->restitution
 # src\main.cpp:202: 		matAtt[static_cast<uint32_t>(element::Custom)].restitution 		   = 0.0f;
	.loc 14 202 48
	movq	192(%rbp), %rax	 # this, tmp434
	addq	$32, %rax	 #, _129
	movl	$5, %edx	 #,
	movq	%rax, %rcx	 # _129,
	call	_ZNKSt10unique_ptrIA_N6MATRIX18MaterialAttributesESt14default_deleteIS2_EEixEy	 #
 # src\main.cpp:202: 		matAtt[static_cast<uint32_t>(element::Custom)].restitution 		   = 0.0f;
	.loc 14 202 67
	pxor	%xmm0, %xmm0	 # tmp435
	movss	%xmm0, 16(%rax)	 # tmp435, _130->restitution
 # src\main.cpp:204: 		printf("-> elements::hardness... \n");
	.loc 14 204 9
	leaq	.LC32(%rip), %rax	 #, tmp436
	movq	%rax, %rcx	 # tmp436,
	call	_Z6printfPKcz	 #
 # src\main.cpp:205: 		matAtt[static_cast<uint32_t>(element::air)   ].hardness 		   = 0.0f;
	.loc 14 205 48
	movq	192(%rbp), %rax	 # this, tmp437
	addq	$32, %rax	 #, _131
	movl	$0, %edx	 #,
	movq	%rax, %rcx	 # _131,
	call	_ZNKSt10unique_ptrIA_N6MATRIX18MaterialAttributesESt14default_deleteIS2_EEixEy	 #
 # src\main.cpp:205: 		matAtt[static_cast<uint32_t>(element::air)   ].hardness 		   = 0.0f;
	.loc 14 205 64
	pxor	%xmm0, %xmm0	 # tmp438
	movss	%xmm0, 20(%rax)	 # tmp438, _132->hardness
 # src\main.cpp:206: 		matAtt[static_cast<uint32_t>(element::water) ].hardness 		   = 0.1f;
	.loc 14 206 48
	movq	192(%rbp), %rax	 # this, tmp439
	addq	$32, %rax	 #, _133
	movl	$1, %edx	 #,
	movq	%rax, %rcx	 # _133,
	call	_ZNKSt10unique_ptrIA_N6MATRIX18MaterialAttributesESt14default_deleteIS2_EEixEy	 #
 # src\main.cpp:206: 		matAtt[static_cast<uint32_t>(element::water) ].hardness 		   = 0.1f;
	.loc 14 206 64
	movss	.LC17(%rip), %xmm0	 #, tmp440
	movss	%xmm0, 20(%rax)	 # tmp440, _134->hardness
 # src\main.cpp:207: 		matAtt[static_cast<uint32_t>(element::wood)  ].hardness 		   = 0.3f;
	.loc 14 207 48
	movq	192(%rbp), %rax	 # this, tmp441
	addq	$32, %rax	 #, _135
	movl	$2, %edx	 #,
	movq	%rax, %rcx	 # _135,
	call	_ZNKSt10unique_ptrIA_N6MATRIX18MaterialAttributesESt14default_deleteIS2_EEixEy	 #
 # src\main.cpp:207: 		matAtt[static_cast<uint32_t>(element::wood)  ].hardness 		   = 0.3f;
	.loc 14 207 64
	movss	.LC30(%rip), %xmm0	 #, tmp442
	movss	%xmm0, 20(%rax)	 # tmp442, _136->hardness
 # src\main.cpp:208: 		matAtt[static_cast<uint32_t>(element::fire)  ].hardness 		   = 0.0f;
	.loc 14 208 48
	movq	192(%rbp), %rax	 # this, tmp443
	addq	$32, %rax	 #, _137
	movl	$3, %edx	 #,
	movq	%rax, %rcx	 # _137,
	call	_ZNKSt10unique_ptrIA_N6MATRIX18MaterialAttributesESt14default_deleteIS2_EEixEy	 #
 # src\main.cpp:208: 		matAtt[static_cast<uint32_t>(element::fire)  ].hardness 		   = 0.0f;
	.loc 14 208 64
	pxor	%xmm0, %xmm0	 # tmp444
	movss	%xmm0, 20(%rax)	 # tmp444, _138->hardness
 # src\main.cpp:209: 		matAtt[static_cast<uint32_t>(element::metal) ].hardness 		   = 0.9f;
	.loc 14 209 48
	movq	192(%rbp), %rax	 # this, tmp445
	addq	$32, %rax	 #, _139
	movl	$4, %edx	 #,
	movq	%rax, %rcx	 # _139,
	call	_ZNKSt10unique_ptrIA_N6MATRIX18MaterialAttributesESt14default_deleteIS2_EEixEy	 #
 # src\main.cpp:209: 		matAtt[static_cast<uint32_t>(element::metal) ].hardness 		   = 0.9f;
	.loc 14 209 64
	movss	.LC31(%rip), %xmm0	 #, tmp446
	movss	%xmm0, 20(%rax)	 # tmp446, _140->hardness
 # src\main.cpp:210: 		matAtt[static_cast<uint32_t>(element::Custom)].hardness 		   = 10000.0f;
	.loc 14 210 48
	movq	192(%rbp), %rax	 # this, tmp447
	addq	$32, %rax	 #, _141
	movl	$5, %edx	 #,
	movq	%rax, %rcx	 # _141,
	call	_ZNKSt10unique_ptrIA_N6MATRIX18MaterialAttributesESt14default_deleteIS2_EEixEy	 #
 # src\main.cpp:210: 		matAtt[static_cast<uint32_t>(element::Custom)].hardness 		   = 10000.0f;
	.loc 14 210 64
	movss	.LC33(%rip), %xmm0	 #, tmp448
	movss	%xmm0, 20(%rax)	 # tmp448, _142->hardness
 # src\main.cpp:212: 		printf("-> elements::hardness... \n");
	.loc 14 212 9
	leaq	.LC32(%rip), %rax	 #, tmp449
	movq	%rax, %rcx	 # tmp449,
	call	_Z6printfPKcz	 #
 # src\main.cpp:213: 		matAtt[static_cast<uint32_t>(element::air)   ].liquid 			   = false;
	.loc 14 213 48
	movq	192(%rbp), %rax	 # this, tmp450
	addq	$32, %rax	 #, _143
	movl	$0, %edx	 #,
	movq	%rax, %rcx	 # _143,
	call	_ZNKSt10unique_ptrIA_N6MATRIX18MaterialAttributesESt14default_deleteIS2_EEixEy	 #
 # src\main.cpp:213: 		matAtt[static_cast<uint32_t>(element::air)   ].liquid 			   = false;
	.loc 14 213 63
	movb	$0, 24(%rax)	 #, _144->liquid
 # src\main.cpp:214: 		matAtt[static_cast<uint32_t>(element::water) ].liquid 			   = true;
	.loc 14 214 48
	movq	192(%rbp), %rax	 # this, tmp451
	addq	$32, %rax	 #, _145
	movl	$1, %edx	 #,
	movq	%rax, %rcx	 # _145,
	call	_ZNKSt10unique_ptrIA_N6MATRIX18MaterialAttributesESt14default_deleteIS2_EEixEy	 #
 # src\main.cpp:214: 		matAtt[static_cast<uint32_t>(element::water) ].liquid 			   = true;
	.loc 14 214 63
	movb	$1, 24(%rax)	 #, _146->liquid
 # src\main.cpp:215: 		matAtt[static_cast<uint32_t>(element::wood)  ].liquid 			   = false;
	.loc 14 215 48
	movq	192(%rbp), %rax	 # this, tmp452
	addq	$32, %rax	 #, _147
	movl	$2, %edx	 #,
	movq	%rax, %rcx	 # _147,
	call	_ZNKSt10unique_ptrIA_N6MATRIX18MaterialAttributesESt14default_deleteIS2_EEixEy	 #
 # src\main.cpp:215: 		matAtt[static_cast<uint32_t>(element::wood)  ].liquid 			   = false;
	.loc 14 215 63
	movb	$0, 24(%rax)	 #, _148->liquid
 # src\main.cpp:216: 		matAtt[static_cast<uint32_t>(element::fire)  ].liquid 			   = false;
	.loc 14 216 48
	movq	192(%rbp), %rax	 # this, tmp453
	addq	$32, %rax	 #, _149
	movl	$3, %edx	 #,
	movq	%rax, %rcx	 # _149,
	call	_ZNKSt10unique_ptrIA_N6MATRIX18MaterialAttributesESt14default_deleteIS2_EEixEy	 #
 # src\main.cpp:216: 		matAtt[static_cast<uint32_t>(element::fire)  ].liquid 			   = false;
	.loc 14 216 63
	movb	$0, 24(%rax)	 #, _150->liquid
 # src\main.cpp:217: 		matAtt[static_cast<uint32_t>(element::metal) ].liquid 			   = false;
	.loc 14 217 48
	movq	192(%rbp), %rax	 # this, tmp454
	addq	$32, %rax	 #, _151
	movl	$4, %edx	 #,
	movq	%rax, %rcx	 # _151,
	call	_ZNKSt10unique_ptrIA_N6MATRIX18MaterialAttributesESt14default_deleteIS2_EEixEy	 #
 # src\main.cpp:217: 		matAtt[static_cast<uint32_t>(element::metal) ].liquid 			   = false;
	.loc 14 217 63
	movb	$0, 24(%rax)	 #, _152->liquid
 # src\main.cpp:218: 		matAtt[static_cast<uint32_t>(element::Custom)].liquid 			   = false;
	.loc 14 218 48
	movq	192(%rbp), %rax	 # this, tmp455
	addq	$32, %rax	 #, _153
	movl	$5, %edx	 #,
	movq	%rax, %rcx	 # _153,
	call	_ZNKSt10unique_ptrIA_N6MATRIX18MaterialAttributesESt14default_deleteIS2_EEixEy	 #
 # src\main.cpp:218: 		matAtt[static_cast<uint32_t>(element::Custom)].liquid 			   = false;
	.loc 14 218 63
	movb	$0, 24(%rax)	 #, _154->liquid
 # src\main.cpp:222: 		printf("matrix initialized: CELLS: [%d] BPC: [%d]\n\n", (w*h*d), sizeof(CELL_BACK_BUFFER[0]));
	.loc 14 222 60
	movq	192(%rbp), %rax	 # this, tmp456
	movl	40(%rax), %edx	 # this_184(D)->w, _155
 # src\main.cpp:222: 		printf("matrix initialized: CELLS: [%d] BPC: [%d]\n\n", (w*h*d), sizeof(CELL_BACK_BUFFER[0]));
	.loc 14 222 62
	movq	192(%rbp), %rax	 # this, tmp457
	movl	44(%rax), %eax	 # this_184(D)->h, _156
 # src\main.cpp:222: 		printf("matrix initialized: CELLS: [%d] BPC: [%d]\n\n", (w*h*d), sizeof(CELL_BACK_BUFFER[0]));
	.loc 14 222 61
	imull	%eax, %edx	 # _156, _157
 # src\main.cpp:222: 		printf("matrix initialized: CELLS: [%d] BPC: [%d]\n\n", (w*h*d), sizeof(CELL_BACK_BUFFER[0]));
	.loc 14 222 64
	movq	192(%rbp), %rax	 # this, tmp458
	movl	48(%rax), %eax	 # this_184(D)->d, _158
 # src\main.cpp:222: 		printf("matrix initialized: CELLS: [%d] BPC: [%d]\n\n", (w*h*d), sizeof(CELL_BACK_BUFFER[0]));
	.loc 14 222 9
	imull	%edx, %eax	 # _157, _159
	movl	$32, %r8d	 #,
	movl	%eax, %edx	 # _159,
	leaq	.LC34(%rip), %rax	 #, tmp459
	movq	%rax, %rcx	 # tmp459,
	call	_Z6printfPKcz	 #
 # src\main.cpp:223: 		return width * height * depth;
	.loc 14 223 16
	movl	200(%rbp), %eax	 # width, tmp460
	imull	208(%rbp), %eax	 # height, _160
 # src\main.cpp:223: 		return width * height * depth;
	.loc 14 223 27
	imull	216(%rbp), %eax	 # depth, _320
	jmp	.L207	 #
.L205:
.LBB121:
.LBB117:
 # src\main.cpp:144: 			cell back_buffer_cell = CHECK_MATRIX_WALLS() ? WriteDataTo(x, y, z, cell(element::Custom)) : WriteDataTo(x, y, z, cell(element::air));
	.loc 14 144 118
	movq	%rax, %rdi	 #, tmp464
	testb	%sil, %sil	 # cleanup.101_170
	je	.L202	 #,
 # src\main.cpp:144: 			cell back_buffer_cell = CHECK_MATRIX_WALLS() ? WriteDataTo(x, y, z, cell(element::Custom)) : WriteDataTo(x, y, z, cell(element::air));
	.loc 14 144 118 is_stmt 0 discriminator 22
	movq	%rbp, %rax	 #, tmp462
	movq	%rax, %rcx	 # tmp462,
	call	_ZN6MATRIX4cellD1Ev	 #
.L202:
	movq	%rdi, %rsi	 # tmp464, tmp463
 # src\main.cpp:144: 			cell back_buffer_cell = CHECK_MATRIX_WALLS() ? WriteDataTo(x, y, z, cell(element::Custom)) : WriteDataTo(x, y, z, cell(element::air));
	.loc 14 144 72 is_stmt 1
	testb	%bl, %bl	 # cleanup.100_168
	je	.L203	 #,
 # src\main.cpp:144: 			cell back_buffer_cell = CHECK_MATRIX_WALLS() ? WriteDataTo(x, y, z, cell(element::Custom)) : WriteDataTo(x, y, z, cell(element::air));
	.loc 14 144 72 is_stmt 0 discriminator 23
	leaq	-32(%rbp), %rax	 #, tmp467
	movq	%rax, %rcx	 # tmp467,
	call	_ZN6MATRIX4cellD1Ev	 #
.L203:
	movq	%rsi, %rax	 # tmp463, D.237810
	movq	%rax, %rcx	 # D.237810,
	call	_Unwind_Resume	 #
.L206:
.LBE117:
.LBE121:
.LBB122:
.LBB120:
 # src\main.cpp:152: 			WriteDataTo(x, y, z, cell(static_cast<element>(i - FlattenedIndex(w >> 1, h >> 1, d >> 1)))); ++i1;
	.loc 14 152 25 is_stmt 1
	movq	%rax, %rbx	 #, tmp469
	leaq	64(%rbp), %rax	 #, tmp468
	movq	%rax, %rcx	 # tmp468,
	call	_ZN6MATRIX4cellD1Ev	 #
	movq	%rbx, %rax	 # tmp469, D.237811
	movq	%rax, %rcx	 # D.237811,
	call	_Unwind_Resume	 #
.LEHE3:
.L207:
.LBE120:
.LBE122:
 # src\main.cpp:224: 	}
	.loc 14 224 2
	addq	$280, %rsp	 #,
	popq	%rbx	 #
.LCFI272:
	popq	%rsi	 #
.LCFI273:
	popq	%rdi	 #
.LCFI274:
	popq	%rbp	 #
.LCFI275:
	ret	
.LFE10917:
	.seh_handler	__gxx_personality_seh0, @unwind, @except
	.seh_handlerdata
.LLSDA10917:
	.byte	0xff
	.byte	0xff
	.byte	0x1
	.uleb128 .LLSDACSE10917-.LLSDACSB10917
.LLSDACSB10917:
	.uleb128 .LEHB0-.LFB10917
	.uleb128 .LEHE0-.LEHB0
	.uleb128 0
	.uleb128 0
	.uleb128 .LEHB1-.LFB10917
	.uleb128 .LEHE1-.LEHB1
	.uleb128 .L205-.LFB10917
	.uleb128 0
	.uleb128 .LEHB2-.LFB10917
	.uleb128 .LEHE2-.LEHB2
	.uleb128 .L206-.LFB10917
	.uleb128 0
	.uleb128 .LEHB3-.LFB10917
	.uleb128 .LEHE3-.LEHB3
	.uleb128 0
	.uleb128 0
.LLSDACSE10917:
	.section	.text$_ZN6MATRIX10InitMatrixEjjj,"x"
	.linkonce discard
	.seh_endproc
	.section	.text$_ZN6MATRIX12AccessDataAtEjjj,"x"
	.linkonce discard
	.align 2
	.globl	_ZN6MATRIX12AccessDataAtEjjj
	.def	_ZN6MATRIX12AccessDataAtEjjj;	.scl	2;	.type	32;	.endef
	.seh_proc	_ZN6MATRIX12AccessDataAtEjjj
_ZN6MATRIX12AccessDataAtEjjj:
.LFB10923:
	.loc 14 226 7
	pushq	%rbp	 #
	.seh_pushreg	%rbp
.LCFI276:
	pushq	%rbx	 #
	.seh_pushreg	%rbx
.LCFI277:
	subq	$40, %rsp	 #,
	.seh_stackalloc	40
.LCFI278:
	leaq	32(%rsp), %rbp	 #,
	.seh_setframe	%rbp, 32
.LCFI279:
	.seh_endprologue
	movq	%rcx, 32(%rbp)	 # .result_ptr, .result_ptr
	movq	%rdx, 40(%rbp)	 # this, this
	movl	%r8d, 48(%rbp)	 # x, x
	movl	%r9d, 56(%rbp)	 # y, y
 # src\main.cpp:228: 		x = x>=w ? w-1 : x; y = y>=h ? h-1 : y; z = z>=d ? d-1 : z;
	.loc 14 228 10
	movq	40(%rbp), %rax	 # this, tmp96
	movl	40(%rax), %eax	 # this_15(D)->w, _1
 # src\main.cpp:228: 		x = x>=w ? w-1 : x; y = y>=h ? h-1 : y; z = z>=d ? d-1 : z;
	.loc 14 228 12
	cmpl	%eax, 48(%rbp)	 # _1, x
	jb	.L209	 #,
 # src\main.cpp:228: 		x = x>=w ? w-1 : x; y = y>=h ? h-1 : y; z = z>=d ? d-1 : z;
	.loc 14 228 14 discriminator 1
	movq	40(%rbp), %rax	 # this, tmp97
	movl	40(%rax), %eax	 # this_15(D)->w, _2
 # src\main.cpp:228: 		x = x>=w ? w-1 : x; y = y>=h ? h-1 : y; z = z>=d ? d-1 : z;
	.loc 14 228 12 discriminator 1
	subl	$1, %eax	 #, iftmp.71_11
	jmp	.L210	 #
.L209:
 # src\main.cpp:228: 		x = x>=w ? w-1 : x; y = y>=h ? h-1 : y; z = z>=d ? d-1 : z;
	.loc 14 228 12 is_stmt 0 discriminator 2
	movl	48(%rbp), %eax	 # x, iftmp.71_11
.L210:
 # src\main.cpp:228: 		x = x>=w ? w-1 : x; y = y>=h ? h-1 : y; z = z>=d ? d-1 : z;
	.loc 14 228 5 is_stmt 1 discriminator 4
	movl	%eax, 48(%rbp)	 # iftmp.71_11, x
 # src\main.cpp:228: 		x = x>=w ? w-1 : x; y = y>=h ? h-1 : y; z = z>=d ? d-1 : z;
	.loc 14 228 30 discriminator 4
	movq	40(%rbp), %rax	 # this, tmp98
	movl	44(%rax), %eax	 # this_15(D)->h, _3
 # src\main.cpp:228: 		x = x>=w ? w-1 : x; y = y>=h ? h-1 : y; z = z>=d ? d-1 : z;
	.loc 14 228 32 discriminator 4
	cmpl	%eax, 56(%rbp)	 # _3, y
	jb	.L211	 #,
 # src\main.cpp:228: 		x = x>=w ? w-1 : x; y = y>=h ? h-1 : y; z = z>=d ? d-1 : z;
	.loc 14 228 34 discriminator 5
	movq	40(%rbp), %rax	 # this, tmp99
	movl	44(%rax), %eax	 # this_15(D)->h, _4
 # src\main.cpp:228: 		x = x>=w ? w-1 : x; y = y>=h ? h-1 : y; z = z>=d ? d-1 : z;
	.loc 14 228 32 discriminator 5
	subl	$1, %eax	 #, iftmp.72_12
	jmp	.L212	 #
.L211:
 # src\main.cpp:228: 		x = x>=w ? w-1 : x; y = y>=h ? h-1 : y; z = z>=d ? d-1 : z;
	.loc 14 228 32 is_stmt 0 discriminator 6
	movl	56(%rbp), %eax	 # y, iftmp.72_12
.L212:
 # src\main.cpp:228: 		x = x>=w ? w-1 : x; y = y>=h ? h-1 : y; z = z>=d ? d-1 : z;
	.loc 14 228 25 is_stmt 1 discriminator 8
	movl	%eax, 56(%rbp)	 # iftmp.72_12, y
 # src\main.cpp:228: 		x = x>=w ? w-1 : x; y = y>=h ? h-1 : y; z = z>=d ? d-1 : z;
	.loc 14 228 50 discriminator 8
	movq	40(%rbp), %rax	 # this, tmp100
	movl	48(%rax), %eax	 # this_15(D)->d, _5
 # src\main.cpp:228: 		x = x>=w ? w-1 : x; y = y>=h ? h-1 : y; z = z>=d ? d-1 : z;
	.loc 14 228 52 discriminator 8
	cmpl	%eax, 64(%rbp)	 # _5, z
	jb	.L213	 #,
 # src\main.cpp:228: 		x = x>=w ? w-1 : x; y = y>=h ? h-1 : y; z = z>=d ? d-1 : z;
	.loc 14 228 54 discriminator 9
	movq	40(%rbp), %rax	 # this, tmp101
	movl	48(%rax), %eax	 # this_15(D)->d, _6
 # src\main.cpp:228: 		x = x>=w ? w-1 : x; y = y>=h ? h-1 : y; z = z>=d ? d-1 : z;
	.loc 14 228 52 discriminator 9
	subl	$1, %eax	 #, iftmp.73_13
	jmp	.L214	 #
.L213:
 # src\main.cpp:228: 		x = x>=w ? w-1 : x; y = y>=h ? h-1 : y; z = z>=d ? d-1 : z;
	.loc 14 228 52 is_stmt 0 discriminator 10
	movl	64(%rbp), %eax	 # z, iftmp.73_13
.L214:
 # src\main.cpp:228: 		x = x>=w ? w-1 : x; y = y>=h ? h-1 : y; z = z>=d ? d-1 : z;
	.loc 14 228 45 is_stmt 1 discriminator 12
	movl	%eax, 64(%rbp)	 # iftmp.73_13, z
 # src\main.cpp:229: 		return CELL_BACK_BUFFER[FlattenedIndex(x, y, z)]; // [x][y][z]
	.loc 14 229 10 discriminator 12
	movq	40(%rbp), %rax	 # this, tmp102
	movq	24(%rax), %rbx	 # this_15(D)->CELL_BACK_BUFFER, _28
 # src\main.cpp:229: 		return CELL_BACK_BUFFER[FlattenedIndex(x, y, z)]; // [x][y][z]
	.loc 14 229 41 discriminator 12
	movl	64(%rbp), %r8d	 # z, tmp103
	movl	56(%rbp), %ecx	 # y, tmp104
	movl	48(%rbp), %edx	 # x, tmp105
	movq	40(%rbp), %rax	 # this, tmp106
	movl	%r8d, %r9d	 # tmp103,
	movl	%ecx, %r8d	 # tmp104,
	movq	%rax, %rcx	 # tmp106,
	call	_ZN6MATRIX14FlattenedIndexEjjj	 #
	movl	%eax, %eax	 # _7, _8
 # src\main.cpp:229: 		return CELL_BACK_BUFFER[FlattenedIndex(x, y, z)]; // [x][y][z]
	.loc 14 229 50 discriminator 12
	salq	$5, %rax	 #, _9
	leaq	(%rbx,%rax), %r8	 #, _10
	movq	32(%rbp), %rcx	 # <retval>, tmp107
	movq	(%r8), %rax	 # MEM[(const struct cell &)_10], tmp108
	movq	8(%r8), %rdx	 # MEM[(const struct cell &)_10],
	movq	%rax, (%rcx)	 # tmp108, *_30(D)
	movq	%rdx, 8(%rcx)	 #, *_30(D)
	movq	16(%r8), %rax	 # MEM[(const struct cell &)_10], tmp109
	movq	24(%r8), %rdx	 # MEM[(const struct cell &)_10],
	movq	%rax, 16(%rcx)	 # tmp109, *_30(D)
	movq	%rdx, 24(%rcx)	 #, *_30(D)
 # src\main.cpp:230: 	}
	.loc 14 230 2 discriminator 12
	movq	32(%rbp), %rax	 # <retval>,
	addq	$40, %rsp	 #,
	popq	%rbx	 #
.LCFI280:
	popq	%rbp	 #
.LCFI281:
	ret	
.LFE10923:
	.seh_endproc
	.section	.text$_ZN6MATRIX11WriteDataToEjjjRKNS_4cellE,"x"
	.linkonce discard
	.align 2
	.globl	_ZN6MATRIX11WriteDataToEjjjRKNS_4cellE
	.def	_ZN6MATRIX11WriteDataToEjjjRKNS_4cellE;	.scl	2;	.type	32;	.endef
	.seh_proc	_ZN6MATRIX11WriteDataToEjjjRKNS_4cellE
_ZN6MATRIX11WriteDataToEjjjRKNS_4cellE:
.LFB10924:
	.loc 14 232 7
	pushq	%rbp	 #
	.seh_pushreg	%rbp
.LCFI282:
	pushq	%rbx	 #
	.seh_pushreg	%rbx
.LCFI283:
	subq	$40, %rsp	 #,
	.seh_stackalloc	40
.LCFI284:
	leaq	32(%rsp), %rbp	 #,
	.seh_setframe	%rbp, 32
.LCFI285:
	.seh_endprologue
	movq	%rcx, 32(%rbp)	 # .result_ptr, .result_ptr
	movq	%rdx, 40(%rbp)	 # this, this
	movl	%r8d, 48(%rbp)	 # x, x
	movl	%r9d, 56(%rbp)	 # y, y
 # src\main.cpp:234: 		x = x>=w ? w-1 : x; y = y>=h ? h-1 : y; z = z>=d ? d-1 : z;
	.loc 14 234 10
	movq	40(%rbp), %rax	 # this, tmp101
	movl	40(%rax), %eax	 # this_19(D)->w, _1
 # src\main.cpp:234: 		x = x>=w ? w-1 : x; y = y>=h ? h-1 : y; z = z>=d ? d-1 : z;
	.loc 14 234 12
	cmpl	%eax, 48(%rbp)	 # _1, x
	jb	.L217	 #,
 # src\main.cpp:234: 		x = x>=w ? w-1 : x; y = y>=h ? h-1 : y; z = z>=d ? d-1 : z;
	.loc 14 234 14 discriminator 1
	movq	40(%rbp), %rax	 # this, tmp102
	movl	40(%rax), %eax	 # this_19(D)->w, _2
 # src\main.cpp:234: 		x = x>=w ? w-1 : x; y = y>=h ? h-1 : y; z = z>=d ? d-1 : z;
	.loc 14 234 12 discriminator 1
	subl	$1, %eax	 #, iftmp.68_15
	jmp	.L218	 #
.L217:
 # src\main.cpp:234: 		x = x>=w ? w-1 : x; y = y>=h ? h-1 : y; z = z>=d ? d-1 : z;
	.loc 14 234 12 is_stmt 0 discriminator 2
	movl	48(%rbp), %eax	 # x, iftmp.68_15
.L218:
 # src\main.cpp:234: 		x = x>=w ? w-1 : x; y = y>=h ? h-1 : y; z = z>=d ? d-1 : z;
	.loc 14 234 5 is_stmt 1 discriminator 4
	movl	%eax, 48(%rbp)	 # iftmp.68_15, x
 # src\main.cpp:234: 		x = x>=w ? w-1 : x; y = y>=h ? h-1 : y; z = z>=d ? d-1 : z;
	.loc 14 234 30 discriminator 4
	movq	40(%rbp), %rax	 # this, tmp103
	movl	44(%rax), %eax	 # this_19(D)->h, _3
 # src\main.cpp:234: 		x = x>=w ? w-1 : x; y = y>=h ? h-1 : y; z = z>=d ? d-1 : z;
	.loc 14 234 32 discriminator 4
	cmpl	%eax, 56(%rbp)	 # _3, y
	jb	.L219	 #,
 # src\main.cpp:234: 		x = x>=w ? w-1 : x; y = y>=h ? h-1 : y; z = z>=d ? d-1 : z;
	.loc 14 234 34 discriminator 5
	movq	40(%rbp), %rax	 # this, tmp104
	movl	44(%rax), %eax	 # this_19(D)->h, _4
 # src\main.cpp:234: 		x = x>=w ? w-1 : x; y = y>=h ? h-1 : y; z = z>=d ? d-1 : z;
	.loc 14 234 32 discriminator 5
	subl	$1, %eax	 #, iftmp.69_16
	jmp	.L220	 #
.L219:
 # src\main.cpp:234: 		x = x>=w ? w-1 : x; y = y>=h ? h-1 : y; z = z>=d ? d-1 : z;
	.loc 14 234 32 is_stmt 0 discriminator 6
	movl	56(%rbp), %eax	 # y, iftmp.69_16
.L220:
 # src\main.cpp:234: 		x = x>=w ? w-1 : x; y = y>=h ? h-1 : y; z = z>=d ? d-1 : z;
	.loc 14 234 25 is_stmt 1 discriminator 8
	movl	%eax, 56(%rbp)	 # iftmp.69_16, y
 # src\main.cpp:234: 		x = x>=w ? w-1 : x; y = y>=h ? h-1 : y; z = z>=d ? d-1 : z;
	.loc 14 234 50 discriminator 8
	movq	40(%rbp), %rax	 # this, tmp105
	movl	48(%rax), %eax	 # this_19(D)->d, _5
 # src\main.cpp:234: 		x = x>=w ? w-1 : x; y = y>=h ? h-1 : y; z = z>=d ? d-1 : z;
	.loc 14 234 52 discriminator 8
	cmpl	%eax, 64(%rbp)	 # _5, z
	jb	.L221	 #,
 # src\main.cpp:234: 		x = x>=w ? w-1 : x; y = y>=h ? h-1 : y; z = z>=d ? d-1 : z;
	.loc 14 234 54 discriminator 9
	movq	40(%rbp), %rax	 # this, tmp106
	movl	48(%rax), %eax	 # this_19(D)->d, _6
 # src\main.cpp:234: 		x = x>=w ? w-1 : x; y = y>=h ? h-1 : y; z = z>=d ? d-1 : z;
	.loc 14 234 52 discriminator 9
	subl	$1, %eax	 #, iftmp.70_17
	jmp	.L222	 #
.L221:
 # src\main.cpp:234: 		x = x>=w ? w-1 : x; y = y>=h ? h-1 : y; z = z>=d ? d-1 : z;
	.loc 14 234 52 is_stmt 0 discriminator 10
	movl	64(%rbp), %eax	 # z, iftmp.70_17
.L222:
 # src\main.cpp:234: 		x = x>=w ? w-1 : x; y = y>=h ? h-1 : y; z = z>=d ? d-1 : z;
	.loc 14 234 45 is_stmt 1 discriminator 12
	movl	%eax, 64(%rbp)	 # iftmp.70_17, z
 # src\main.cpp:235: 		CELL_BACK_BUFFER[FlattenedIndex(x, y, z)] = _data; // [x][y][z]
	.loc 14 235 3 discriminator 12
	movq	40(%rbp), %rax	 # this, tmp107
	movq	24(%rax), %rbx	 # this_19(D)->CELL_BACK_BUFFER, _32
 # src\main.cpp:235: 		CELL_BACK_BUFFER[FlattenedIndex(x, y, z)] = _data; // [x][y][z]
	.loc 14 235 34 discriminator 12
	movl	64(%rbp), %r8d	 # z, tmp108
	movl	56(%rbp), %ecx	 # y, tmp109
	movl	48(%rbp), %edx	 # x, tmp110
	movq	40(%rbp), %rax	 # this, tmp111
	movl	%r8d, %r9d	 # tmp108,
	movl	%ecx, %r8d	 # tmp109,
	movq	%rax, %rcx	 # tmp111,
	call	_ZN6MATRIX14FlattenedIndexEjjj	 #
	movl	%eax, %eax	 # _7, _8
 # src\main.cpp:235: 		CELL_BACK_BUFFER[FlattenedIndex(x, y, z)] = _data; // [x][y][z]
	.loc 14 235 43 discriminator 12
	salq	$5, %rax	 #, _9
	leaq	(%rbx,%rax), %r8	 #, _10
 # src\main.cpp:235: 		CELL_BACK_BUFFER[FlattenedIndex(x, y, z)] = _data; // [x][y][z]
	.loc 14 235 45 discriminator 12
	movq	72(%rbp), %rcx	 # _data, tmp112
	movq	(%rcx), %rax	 # *_data_34(D), tmp113
	movq	8(%rcx), %rdx	 # *_data_34(D),
	movq	%rax, (%r8)	 # tmp113, *_10
	movq	%rdx, 8(%r8)	 #, *_10
	movq	16(%rcx), %rax	 # *_data_34(D), tmp114
	movq	24(%rcx), %rdx	 # *_data_34(D),
	movq	%rax, 16(%r8)	 # tmp114, *_10
	movq	%rdx, 24(%r8)	 #, *_10
 # src\main.cpp:236: 		return CELL_BACK_BUFFER[FlattenedIndex(x, y, z)];
	.loc 14 236 10 discriminator 12
	movq	40(%rbp), %rax	 # this, tmp115
	movq	24(%rax), %rbx	 # this_19(D)->CELL_BACK_BUFFER, _36
 # src\main.cpp:236: 		return CELL_BACK_BUFFER[FlattenedIndex(x, y, z)];
	.loc 14 236 41 discriminator 12
	movl	64(%rbp), %r8d	 # z, tmp116
	movl	56(%rbp), %ecx	 # y, tmp117
	movl	48(%rbp), %edx	 # x, tmp118
	movq	40(%rbp), %rax	 # this, tmp119
	movl	%r8d, %r9d	 # tmp116,
	movl	%ecx, %r8d	 # tmp117,
	movq	%rax, %rcx	 # tmp119,
	call	_ZN6MATRIX14FlattenedIndexEjjj	 #
	movl	%eax, %eax	 # _11, _12
 # src\main.cpp:236: 		return CELL_BACK_BUFFER[FlattenedIndex(x, y, z)];
	.loc 14 236 50 discriminator 12
	salq	$5, %rax	 #, _13
	leaq	(%rbx,%rax), %r8	 #, _14
	movq	32(%rbp), %rcx	 # <retval>, tmp120
	movq	(%r8), %rax	 # MEM[(const struct cell &)_14], tmp121
	movq	8(%r8), %rdx	 # MEM[(const struct cell &)_14],
	movq	%rax, (%rcx)	 # tmp121, *_38(D)
	movq	%rdx, 8(%rcx)	 #, *_38(D)
	movq	16(%r8), %rax	 # MEM[(const struct cell &)_14], tmp122
	movq	24(%r8), %rdx	 # MEM[(const struct cell &)_14],
	movq	%rax, 16(%rcx)	 # tmp122, *_38(D)
	movq	%rdx, 24(%rcx)	 #, *_38(D)
 # src\main.cpp:237: 	}
	.loc 14 237 2 discriminator 12
	movq	32(%rbp), %rax	 # <retval>,
	addq	$40, %rsp	 #,
	popq	%rbx	 #
.LCFI286:
	popq	%rbp	 #
.LCFI287:
	ret	
.LFE10924:
	.seh_endproc
	.section	.text$_ZN6MATRIX15UpdateWorldViewEP6HWND__RSt6atomicIbE,"x"
	.linkonce discard
	.align 2
	.globl	_ZN6MATRIX15UpdateWorldViewEP6HWND__RSt6atomicIbE
	.def	_ZN6MATRIX15UpdateWorldViewEP6HWND__RSt6atomicIbE;	.scl	2;	.type	32;	.endef
	.seh_proc	_ZN6MATRIX15UpdateWorldViewEP6HWND__RSt6atomicIbE
_ZN6MATRIX15UpdateWorldViewEP6HWND__RSt6atomicIbE:
.LFB10925:
	.loc 14 239 14
	pushq	%rbp	 #
	.seh_pushreg	%rbp
.LCFI288:
	movq	%rsp, %rbp	 #,
	.seh_setframe	%rbp, 0
.LCFI289:
	subq	$48, %rsp	 #,
	.seh_stackalloc	48
	.seh_endprologue
	movq	%rcx, 16(%rbp)	 # this, this
	movq	%rdx, 24(%rbp)	 # hwnd, hwnd
	movq	%r8, 32(%rbp)	 # running, running
.LBB123:
 # src\main.cpp:241: 		if(running)
	.loc 14 241 6
	movq	32(%rbp), %rax	 # running, tmp103
	movq	%rax, %rcx	 # tmp103,
	call	_ZNKSt6atomicIbEcvbEv	 #
 # src\main.cpp:241: 		if(running)
	.loc 14 241 3
	testb	%al, %al	 # retval.140_27
	je	.L231	 #,
.LBB124:
.LBB125:
 # src\main.cpp:243: 			for(uint32_t i=0; i<=w*h*d -1; ++i)
	.loc 14 243 17
	movl	$0, -4(%rbp)	 #, i
 # src\main.cpp:243: 			for(uint32_t i=0; i<=w*h*d -1; ++i)
	.loc 14 243 4
	jmp	.L226	 #
.L230:
 # src\main.cpp:245: 				if(!running){break;}
	.loc 14 245 9
	movq	32(%rbp), %rax	 # running, tmp104
	movq	%rax, %rcx	 # tmp104,
	call	_ZNKSt6atomicIbEcvbEv	 #
 # src\main.cpp:245: 				if(!running){break;}
	.loc 14 245 8
	xorl	$1, %eax	 #, retval.141_31
 # src\main.cpp:245: 				if(!running){break;}
	.loc 14 245 5
	testb	%al, %al	 # retval.141_31
	jne	.L232	 #,
 # src\main.cpp:247: 				if(CELL_BACK_BUFFER[i].MaterialType != CELL_FRONT_BUFFER[i].MaterialType)
	.loc 14 247 8
	movq	16(%rbp), %rax	 # this, tmp105
	movq	24(%rax), %rax	 # this_29(D)->CELL_BACK_BUFFER, _2
 # src\main.cpp:247: 				if(CELL_BACK_BUFFER[i].MaterialType != CELL_FRONT_BUFFER[i].MaterialType)
	.loc 14 247 25
	movl	-4(%rbp), %edx	 # i, _3
 # src\main.cpp:247: 				if(CELL_BACK_BUFFER[i].MaterialType != CELL_FRONT_BUFFER[i].MaterialType)
	.loc 14 247 26
	salq	$5, %rdx	 #, _4
	addq	%rdx, %rax	 # _4, _5
 # src\main.cpp:247: 				if(CELL_BACK_BUFFER[i].MaterialType != CELL_FRONT_BUFFER[i].MaterialType)
	.loc 14 247 28
	movl	28(%rax), %edx	 # _5->MaterialType, _6
 # src\main.cpp:247: 				if(CELL_BACK_BUFFER[i].MaterialType != CELL_FRONT_BUFFER[i].MaterialType)
	.loc 14 247 44
	movq	16(%rbp), %rax	 # this, tmp106
	movq	8(%rax), %rax	 # this_29(D)->CELL_FRONT_BUFFER, _7
 # src\main.cpp:247: 				if(CELL_BACK_BUFFER[i].MaterialType != CELL_FRONT_BUFFER[i].MaterialType)
	.loc 14 247 62
	movl	-4(%rbp), %ecx	 # i, _8
 # src\main.cpp:247: 				if(CELL_BACK_BUFFER[i].MaterialType != CELL_FRONT_BUFFER[i].MaterialType)
	.loc 14 247 63
	salq	$5, %rcx	 #, _9
	addq	%rcx, %rax	 # _9, _10
 # src\main.cpp:247: 				if(CELL_BACK_BUFFER[i].MaterialType != CELL_FRONT_BUFFER[i].MaterialType)
	.loc 14 247 65
	movl	28(%rax), %eax	 # _10->MaterialType, _11
 # src\main.cpp:247: 				if(CELL_BACK_BUFFER[i].MaterialType != CELL_FRONT_BUFFER[i].MaterialType)
	.loc 14 247 5
	cmpl	%eax, %edx	 # _11, _6
	je	.L229	 #,
 # src\main.cpp:250: 					std::swap(CELL_FRONT_BUFFER, CELL_BACK_BUFFER);
	.loc 14 250 35
	movq	16(%rbp), %rax	 # this, tmp107
	leaq	24(%rax), %rdx	 #, _12
 # src\main.cpp:250: 					std::swap(CELL_FRONT_BUFFER, CELL_BACK_BUFFER);
	.loc 14 250 16
	movq	16(%rbp), %rax	 # this, tmp108
	addq	$8, %rax	 #, _13
 # src\main.cpp:250: 					std::swap(CELL_FRONT_BUFFER, CELL_BACK_BUFFER);
	.loc 14 250 15
	movq	%rax, %rcx	 # _13,
	call	_ZSt4swapIPN6MATRIX4cellEENSt9enable_ifIXsrSt6__and_IJSt6__not_ISt15__is_tuple_likeIT_EESt21is_move_constructibleIS7_ESt18is_move_assignableIS7_EEE5valueEvE4typeERS7_SH_	 #
 # src\main.cpp:251: 					InvalidateRect(hwnd, nullptr, FALSE);
	.loc 14 251 20
	movq	24(%rbp), %rax	 # hwnd, tmp109
	movl	$0, %r8d	 #,
	movl	$0, %edx	 #,
	movq	%rax, %rcx	 # tmp109,
	movq	__imp_InvalidateRect(%rip), %rax	 #, tmp110
	call	*%rax	 # tmp110
.LVL7:
 # src\main.cpp:252: 					break;
	.loc 14 252 6
	jmp	.L225	 #
.L229:
 # src\main.cpp:243: 			for(uint32_t i=0; i<=w*h*d -1; ++i)
	.loc 14 243 4 discriminator 2
	addl	$1, -4(%rbp)	 #, i
.L226:
 # src\main.cpp:243: 			for(uint32_t i=0; i<=w*h*d -1; ++i)
	.loc 14 243 25 discriminator 1
	movq	16(%rbp), %rax	 # this, tmp111
	movl	40(%rax), %edx	 # this_29(D)->w, _14
 # src\main.cpp:243: 			for(uint32_t i=0; i<=w*h*d -1; ++i)
	.loc 14 243 27 discriminator 1
	movq	16(%rbp), %rax	 # this, tmp112
	movl	44(%rax), %eax	 # this_29(D)->h, _15
 # src\main.cpp:243: 			for(uint32_t i=0; i<=w*h*d -1; ++i)
	.loc 14 243 26 discriminator 1
	imull	%eax, %edx	 # _15, _16
 # src\main.cpp:243: 			for(uint32_t i=0; i<=w*h*d -1; ++i)
	.loc 14 243 29 discriminator 1
	movq	16(%rbp), %rax	 # this, tmp113
	movl	48(%rax), %eax	 # this_29(D)->d, _17
 # src\main.cpp:243: 			for(uint32_t i=0; i<=w*h*d -1; ++i)
	.loc 14 243 28 discriminator 1
	imull	%edx, %eax	 # _16, _18
 # src\main.cpp:243: 			for(uint32_t i=0; i<=w*h*d -1; ++i)
	.loc 14 243 31 discriminator 1
	subl	$1, %eax	 #, _19
 # src\main.cpp:243: 			for(uint32_t i=0; i<=w*h*d -1; ++i)
	.loc 14 243 23 discriminator 1
	cmpl	-4(%rbp), %eax	 # i, _19
	jnb	.L230	 #,
.LBE125:
.LBE124:
.LBE123:
 # src\main.cpp:256: 	}
	.loc 14 256 2
	jmp	.L231	 #
.L232:
.LBB128:
.LBB127:
.LBB126:
 # src\main.cpp:245: 				if(!running){break;}
	.loc 14 245 18
	nop	
.L225:
.L231:
.LBE126:
.LBE127:
.LBE128:
 # src\main.cpp:256: 	}
	.loc 14 256 2
	nop	
	addq	$48, %rsp	 #,
	popq	%rbp	 #
.LCFI290:
	ret	
.LFE10925:
	.seh_endproc
	.section	.text$_ZN6MATRIX11FlushMatrixERSt6atomicIbEjjjjjj,"x"
	.linkonce discard
	.align 2
	.globl	_ZN6MATRIX11FlushMatrixERSt6atomicIbEjjjjjj
	.def	_ZN6MATRIX11FlushMatrixERSt6atomicIbEjjjjjj;	.scl	2;	.type	32;	.endef
	.seh_proc	_ZN6MATRIX11FlushMatrixERSt6atomicIbEjjjjjj
_ZN6MATRIX11FlushMatrixERSt6atomicIbEjjjjjj:
.LFB10927:
	.loc 14 258 14
	pushq	%rbp	 #
	.seh_pushreg	%rbp
.LCFI291:
	pushq	%rbx	 #
	.seh_pushreg	%rbx
.LCFI292:
	subq	$280, %rsp	 #,
	.seh_stackalloc	280
.LCFI293:
	leaq	128(%rsp), %rbp	 #,
	.seh_setframe	%rbp, 128
.LCFI294:
	.seh_endprologue
	movq	%rcx, 176(%rbp)	 # this, this
	movq	%rdx, 184(%rbp)	 # running, running
	movl	%r8d, 192(%rbp)	 # x1, x1
	movl	%r9d, 200(%rbp)	 # x2, x2
.LBB129:
 # src\main.cpp:260: 		for(uint32_t z=z1; z<=z2; ++z)
	.loc 14 260 16
	movl	224(%rbp), %eax	 # z1, tmp95
	movl	%eax, 140(%rbp)	 # tmp95, z
 # src\main.cpp:260: 		for(uint32_t z=z1; z<=z2; ++z)
	.loc 14 260 3
	jmp	.L234	 #
.L245:
.LBB130:
 # src\main.cpp:262: 			if(!running) break;
	.loc 14 262 8
	movq	184(%rbp), %rax	 # running, tmp96
	movq	%rax, %rcx	 # tmp96,
	call	_ZNKSt6atomicIbEcvbEv	 #
 # src\main.cpp:262: 			if(!running) break;
	.loc 14 262 7
	xorl	$1, %eax	 #, retval.120_30
 # src\main.cpp:262: 			if(!running) break;
	.loc 14 262 4
	testb	%al, %al	 # retval.120_30
	jne	.L249	 #,
.LBB131:
 # src\main.cpp:264: 			for(uint32_t y=y1; y<=y2; ++y)
	.loc 14 264 17
	movl	208(%rbp), %eax	 # y1, tmp97
	movl	%eax, 136(%rbp)	 # tmp97, y
 # src\main.cpp:264: 			for(uint32_t y=y1; y<=y2; ++y)
	.loc 14 264 4
	jmp	.L237	 #
.L244:
.LBB132:
.LBB133:
 # src\main.cpp:266: 				for(uint32_t x=x1; x<=x2; ++x)
	.loc 14 266 18
	movl	192(%rbp), %eax	 # x1, tmp98
	movl	%eax, 132(%rbp)	 # tmp98, x
 # src\main.cpp:266: 				for(uint32_t x=x1; x<=x2; ++x)
	.loc 14 266 5
	jmp	.L238	 #
.L243:
.LBB134:
 # src\main.cpp:268: 					cell genericCellRead = CHECK_MATRIX_WALLS() ? WriteDataTo(x, y, z, cell(element::Custom)) : cell(element::air);
	.loc 14 268 115
	movl	$0, %ebx	 #, cleanup.121_14
 # src\main.cpp:268: 					cell genericCellRead = CHECK_MATRIX_WALLS() ? WriteDataTo(x, y, z, cell(element::Custom)) : cell(element::air);
	.loc 14 268 50
	cmpl	$0, 132(%rbp)	 #, x
	je	.L239	 #,
 # src\main.cpp:268: 					cell genericCellRead = CHECK_MATRIX_WALLS() ? WriteDataTo(x, y, z, cell(element::Custom)) : cell(element::air);
	.loc 14 268 29 discriminator 2
	movq	176(%rbp), %rax	 # this, tmp99
	movl	40(%rax), %eax	 # this_40(D)->w, _2
	subl	$1, %eax	 #, _3
	cmpl	%eax, 132(%rbp)	 # _3, x
	je	.L239	 #,
 # src\main.cpp:268: 					cell genericCellRead = CHECK_MATRIX_WALLS() ? WriteDataTo(x, y, z, cell(element::Custom)) : cell(element::air);
	.loc 14 268 29 is_stmt 0 discriminator 4
	cmpl	$0, 136(%rbp)	 #, y
	je	.L239	 #,
 # src\main.cpp:268: 					cell genericCellRead = CHECK_MATRIX_WALLS() ? WriteDataTo(x, y, z, cell(element::Custom)) : cell(element::air);
	.loc 14 268 29 discriminator 6
	movq	176(%rbp), %rax	 # this, tmp100
	movl	44(%rax), %eax	 # this_40(D)->h, _4
	subl	$1, %eax	 #, _5
	cmpl	%eax, 136(%rbp)	 # _5, y
	je	.L239	 #,
 # src\main.cpp:268: 					cell genericCellRead = CHECK_MATRIX_WALLS() ? WriteDataTo(x, y, z, cell(element::Custom)) : cell(element::air);
	.loc 14 268 29 discriminator 8
	cmpl	$0, 140(%rbp)	 #, z
	je	.L239	 #,
 # src\main.cpp:268: 					cell genericCellRead = CHECK_MATRIX_WALLS() ? WriteDataTo(x, y, z, cell(element::Custom)) : cell(element::air);
	.loc 14 268 29 discriminator 10
	movq	176(%rbp), %rax	 # this, tmp101
	movl	48(%rax), %eax	 # this_40(D)->d, _6
	subl	$1, %eax	 #, _7
	cmpl	%eax, 140(%rbp)	 # _7, z
	jne	.L240	 #,
.L239:
 # src\main.cpp:268: 					cell genericCellRead = CHECK_MATRIX_WALLS() ? WriteDataTo(x, y, z, cell(element::Custom)) : cell(element::air);
	.loc 14 268 73 is_stmt 1 discriminator 11
	movq	%rbp, %rax	 #, tmp102
	movl	$5, %edx	 #,
	movq	%rax, %rcx	 # tmp102,
	call	_ZN6MATRIX4cellC1ENS_7elementE	 #
 # src\main.cpp:268: 					cell genericCellRead = CHECK_MATRIX_WALLS() ? WriteDataTo(x, y, z, cell(element::Custom)) : cell(element::air);
	.loc 14 268 115 discriminator 11
	movl	$1, %ebx	 #, cleanup.121_14
	leaq	-80(%rbp), %rax	 #, tmp103
	movl	136(%rbp), %r9d	 # y, tmp104
	movl	132(%rbp), %r8d	 # x, tmp105
	movq	176(%rbp), %rdx	 # this, tmp106
	movq	%rbp, %rcx	 #, tmp107
	movq	%rcx, 40(%rsp)	 # tmp107,
	movl	140(%rbp), %ecx	 # z, tmp108
	movl	%ecx, 32(%rsp)	 # tmp108,
	movq	%rax, %rcx	 # tmp103,
	call	_ZN6MATRIX11WriteDataToEjjjRKNS_4cellE	 #
	jmp	.L241	 #
.L240:
 # src\main.cpp:268: 					cell genericCellRead = CHECK_MATRIX_WALLS() ? WriteDataTo(x, y, z, cell(element::Custom)) : cell(element::air);
	.loc 14 268 115 is_stmt 0 discriminator 12
	leaq	-80(%rbp), %rax	 #, tmp109
	movl	$0, %edx	 #,
	movq	%rax, %rcx	 # tmp109,
	call	_ZN6MATRIX4cellC1ENS_7elementE	 #
.L241:
 # src\main.cpp:268: 					cell genericCellRead = CHECK_MATRIX_WALLS() ? WriteDataTo(x, y, z, cell(element::Custom)) : cell(element::air);
	.loc 14 268 73 is_stmt 1 discriminator 14
	testb	%bl, %bl	 # cleanup.121_14
	je	.L242	 #,
 # src\main.cpp:268: 					cell genericCellRead = CHECK_MATRIX_WALLS() ? WriteDataTo(x, y, z, cell(element::Custom)) : cell(element::air);
	.loc 14 268 73 is_stmt 0 discriminator 15
	movq	%rbp, %rax	 #, tmp110
	movq	%rax, %rcx	 # tmp110,
	call	_ZN6MATRIX4cellD1Ev	 #
.L242:
 # src\main.cpp:269: 					MaterialAttributes MA = ReadCellAttributes(genericCellRead); // read that these cells can't be destroyed... pretty much
	.loc 14 269 48 is_stmt 1 discriminator 17
	movq	-80(%rbp), %rax	 # genericCellRead, tmp111
	movq	-72(%rbp), %rdx	 # genericCellRead,
	movq	%rax, 32(%rbp)	 # tmp111, D.208634
	movq	%rdx, 40(%rbp)	 #, D.208634
	movq	-64(%rbp), %rax	 # genericCellRead, tmp112
	movq	-56(%rbp), %rdx	 # genericCellRead,
	movq	%rax, 48(%rbp)	 # tmp112, D.208634
	movq	%rdx, 56(%rbp)	 #, D.208634
	leaq	-48(%rbp), %rax	 #, tmp113
	leaq	32(%rbp), %rcx	 #, tmp114
	movq	176(%rbp), %rdx	 # this, tmp115
	movq	%rcx, %r8	 # tmp114,
	movq	%rax, %rcx	 # tmp113,
.LEHB4:
	call	_ZN6MATRIX18ReadCellAttributesENS_4cellE	 #
.LEHE4:
 # src\main.cpp:269: 					MaterialAttributes MA = ReadCellAttributes(genericCellRead); // read that these cells can't be destroyed... pretty much
	.loc 14 269 48 is_stmt 0 discriminator 2
	leaq	32(%rbp), %rax	 #, tmp116
	movq	%rax, %rcx	 # tmp116,
	call	_ZN6MATRIX4cellD1Ev	 #
 # src\main.cpp:270: 					WriteDataTo(x, y, z, cell(static_cast<element>(rand() % element::size)));
	.loc 14 270 57 is_stmt 1 discriminator 2
	call	rand	 #
	movl	%eax, %ecx	 #, _8
 # src\main.cpp:270: 					WriteDataTo(x, y, z, cell(static_cast<element>(rand() % element::size)));
	.loc 14 270 60 discriminator 2
	movslq	%ecx, %rax	 # _8, tmp117
	imulq	$715827883, %rax, %rax	 #, tmp117, tmp118
	shrq	$32, %rax	 #, tmp118
	movq	%rax, %rdx	 # tmp118, tmp119
	movl	%ecx, %eax	 # _8, tmp120
	sarl	$31, %eax	 #, tmp120
	subl	%eax, %edx	 # tmp120, _9
	movl	%edx, %eax	 # _9, tmp121
	addl	%eax, %eax	 # tmp121
	addl	%edx, %eax	 # _9, tmp121
	addl	%eax, %eax	 # tmp122
	movl	%ecx, %edx	 # _8, _8
	subl	%eax, %edx	 # tmp121, _8
 # src\main.cpp:270: 					WriteDataTo(x, y, z, cell(static_cast<element>(rand() % element::size)));
	.loc 14 270 27 discriminator 2
	leaq	96(%rbp), %rax	 #, tmp123
	movq	%rax, %rcx	 # tmp123,
	call	_ZN6MATRIX4cellC1ENS_7elementE	 #
 # src\main.cpp:270: 					WriteDataTo(x, y, z, cell(static_cast<element>(rand() % element::size)));
	.loc 14 270 17 discriminator 2
	leaq	64(%rbp), %rax	 #, tmp124
	movl	136(%rbp), %r9d	 # y, tmp125
	movl	132(%rbp), %r8d	 # x, tmp126
	movq	176(%rbp), %rdx	 # this, tmp127
	leaq	96(%rbp), %rcx	 #, tmp128
	movq	%rcx, 40(%rsp)	 # tmp128,
	movl	140(%rbp), %ecx	 # z, tmp129
	movl	%ecx, 32(%rsp)	 # tmp129,
	movq	%rax, %rcx	 # tmp124,
	call	_ZN6MATRIX11WriteDataToEjjjRKNS_4cellE	 #
	leaq	64(%rbp), %rax	 #, tmp130
	movq	%rax, %rcx	 # tmp130,
	call	_ZN6MATRIX4cellD1Ev	 #
 # src\main.cpp:270: 					WriteDataTo(x, y, z, cell(static_cast<element>(rand() % element::size)));
	.loc 14 270 27 discriminator 2
	leaq	96(%rbp), %rax	 #, tmp131
	movq	%rax, %rcx	 # tmp131,
	call	_ZN6MATRIX4cellD1Ev	 #
 # src\main.cpp:271: 				}
	.loc 14 271 5 discriminator 2
	leaq	-80(%rbp), %rax	 #, tmp132
	movq	%rax, %rcx	 # tmp132,
	call	_ZN6MATRIX4cellD1Ev	 #
.LBE134:
 # src\main.cpp:266: 				for(uint32_t x=x1; x<=x2; ++x)
	.loc 14 266 5 discriminator 2
	addl	$1, 132(%rbp)	 #, x
.L238:
 # src\main.cpp:266: 				for(uint32_t x=x1; x<=x2; ++x)
	.loc 14 266 25 discriminator 2
	movl	132(%rbp), %eax	 # x, tmp133
	cmpl	%eax, 200(%rbp)	 # tmp133, x2
	jnb	.L243	 #,
.LBE133:
.LBE132:
 # src\main.cpp:264: 			for(uint32_t y=y1; y<=y2; ++y)
	.loc 14 264 4 discriminator 2
	addl	$1, 136(%rbp)	 #, y
.L237:
 # src\main.cpp:264: 			for(uint32_t y=y1; y<=y2; ++y)
	.loc 14 264 24 discriminator 1
	movl	136(%rbp), %eax	 # y, tmp134
	cmpl	%eax, 216(%rbp)	 # tmp134, y2
	jnb	.L244	 #,
.LBE131:
.LBE130:
 # src\main.cpp:260: 		for(uint32_t z=z1; z<=z2; ++z)
	.loc 14 260 3 discriminator 2
	addl	$1, 140(%rbp)	 #, z
.L234:
 # src\main.cpp:260: 		for(uint32_t z=z1; z<=z2; ++z)
	.loc 14 260 23 discriminator 1
	movl	140(%rbp), %eax	 # z, tmp135
	cmpl	%eax, 232(%rbp)	 # tmp135, z2
	jnb	.L245	 #,
.LBE129:
 # src\main.cpp:274: 	}
	.loc 14 274 2
	jmp	.L233	 #
.L249:
.LBB141:
.LBB139:
 # src\main.cpp:262: 			if(!running) break;
	.loc 14 262 17
	nop	
.LBE139:
.LBE141:
 # src\main.cpp:274: 	}
	.loc 14 274 2
	jmp	.L233	 #
.L247:
.LBB142:
.LBB140:
.LBB138:
.LBB137:
.LBB136:
.LBB135:
 # src\main.cpp:269: 					MaterialAttributes MA = ReadCellAttributes(genericCellRead); // read that these cells can't be destroyed... pretty much
	.loc 14 269 48
	movq	%rax, %rbx	 #, tmp138
	leaq	32(%rbp), %rax	 #, tmp136
	movq	%rax, %rcx	 # tmp136,
	call	_ZN6MATRIX4cellD1Ev	 #
 # src\main.cpp:271: 				}
	.loc 14 271 5
	leaq	-80(%rbp), %rax	 #, tmp141
	movq	%rax, %rcx	 # tmp141,
	call	_ZN6MATRIX4cellD1Ev	 #
	movq	%rbx, %rax	 # tmp137, D.237833
	movq	%rax, %rcx	 # D.237833,
.LEHB5:
	call	_Unwind_Resume	 #
	nop	
.LEHE5:
.L233:
.LBE135:
.LBE136:
.LBE137:
.LBE138:
.LBE140:
.LBE142:
 # src\main.cpp:274: 	}
	.loc 14 274 2
	addq	$280, %rsp	 #,
	popq	%rbx	 #
.LCFI295:
	popq	%rbp	 #
.LCFI296:
	ret	
.LFE10927:
	.seh_handler	__gxx_personality_seh0, @unwind, @except
	.seh_handlerdata
.LLSDA10927:
	.byte	0xff
	.byte	0xff
	.byte	0x1
	.uleb128 .LLSDACSE10927-.LLSDACSB10927
.LLSDACSB10927:
	.uleb128 .LEHB4-.LFB10927
	.uleb128 .LEHE4-.LEHB4
	.uleb128 .L247-.LFB10927
	.uleb128 0
	.uleb128 .LEHB5-.LFB10927
	.uleb128 .LEHE5-.LEHB5
	.uleb128 0
	.uleb128 0
.LLSDACSE10927:
	.section	.text$_ZN6MATRIX11FlushMatrixERSt6atomicIbEjjjjjj,"x"
	.linkonce discard
	.seh_endproc
	.section	.text$_ZN6MATRIX14FlattenedIndexEjjj,"x"
	.linkonce discard
	.align 2
	.globl	_ZN6MATRIX14FlattenedIndexEjjj
	.def	_ZN6MATRIX14FlattenedIndexEjjj;	.scl	2;	.type	32;	.endef
	.seh_proc	_ZN6MATRIX14FlattenedIndexEjjj
_ZN6MATRIX14FlattenedIndexEjjj:
.LFB10930:
	.loc 14 328 11
	pushq	%rbp	 #
	.seh_pushreg	%rbp
.LCFI297:
	movq	%rsp, %rbp	 #,
	.seh_setframe	%rbp, 0
.LCFI298:
	.seh_endprologue
	movq	%rcx, 16(%rbp)	 # this, this
	movl	%edx, 24(%rbp)	 # x, x
	movl	%r8d, 32(%rbp)	 # y, y
	movl	%r9d, 40(%rbp)	 # z, z
 # src\main.cpp:330: 		x = x>=w ? w-1 : x; y = y>=h ? h-1 : y; z = z>=d ? d-1 : z;
	.loc 14 330 10
	movq	16(%rbp), %rax	 # this, tmp100
	movl	40(%rax), %eax	 # this_18(D)->w, _1
 # src\main.cpp:330: 		x = x>=w ? w-1 : x; y = y>=h ? h-1 : y; z = z>=d ? d-1 : z;
	.loc 14 330 12
	cmpl	%eax, 24(%rbp)	 # _1, x
	jb	.L251	 #,
 # src\main.cpp:330: 		x = x>=w ? w-1 : x; y = y>=h ? h-1 : y; z = z>=d ? d-1 : z;
	.loc 14 330 14 discriminator 1
	movq	16(%rbp), %rax	 # this, tmp101
	movl	40(%rax), %eax	 # this_18(D)->w, _2
 # src\main.cpp:330: 		x = x>=w ? w-1 : x; y = y>=h ? h-1 : y; z = z>=d ? d-1 : z;
	.loc 14 330 12 discriminator 1
	subl	$1, %eax	 #, iftmp.25_14
	jmp	.L252	 #
.L251:
 # src\main.cpp:330: 		x = x>=w ? w-1 : x; y = y>=h ? h-1 : y; z = z>=d ? d-1 : z;
	.loc 14 330 12 is_stmt 0 discriminator 2
	movl	24(%rbp), %eax	 # x, iftmp.25_14
.L252:
 # src\main.cpp:330: 		x = x>=w ? w-1 : x; y = y>=h ? h-1 : y; z = z>=d ? d-1 : z;
	.loc 14 330 5 is_stmt 1 discriminator 4
	movl	%eax, 24(%rbp)	 # iftmp.25_14, x
 # src\main.cpp:330: 		x = x>=w ? w-1 : x; y = y>=h ? h-1 : y; z = z>=d ? d-1 : z;
	.loc 14 330 30 discriminator 4
	movq	16(%rbp), %rax	 # this, tmp102
	movl	44(%rax), %eax	 # this_18(D)->h, _3
 # src\main.cpp:330: 		x = x>=w ? w-1 : x; y = y>=h ? h-1 : y; z = z>=d ? d-1 : z;
	.loc 14 330 32 discriminator 4
	cmpl	%eax, 32(%rbp)	 # _3, y
	jb	.L253	 #,
 # src\main.cpp:330: 		x = x>=w ? w-1 : x; y = y>=h ? h-1 : y; z = z>=d ? d-1 : z;
	.loc 14 330 34 discriminator 5
	movq	16(%rbp), %rax	 # this, tmp103
	movl	44(%rax), %eax	 # this_18(D)->h, _4
 # src\main.cpp:330: 		x = x>=w ? w-1 : x; y = y>=h ? h-1 : y; z = z>=d ? d-1 : z;
	.loc 14 330 32 discriminator 5
	subl	$1, %eax	 #, iftmp.26_15
	jmp	.L254	 #
.L253:
 # src\main.cpp:330: 		x = x>=w ? w-1 : x; y = y>=h ? h-1 : y; z = z>=d ? d-1 : z;
	.loc 14 330 32 is_stmt 0 discriminator 6
	movl	32(%rbp), %eax	 # y, iftmp.26_15
.L254:
 # src\main.cpp:330: 		x = x>=w ? w-1 : x; y = y>=h ? h-1 : y; z = z>=d ? d-1 : z;
	.loc 14 330 25 is_stmt 1 discriminator 8
	movl	%eax, 32(%rbp)	 # iftmp.26_15, y
 # src\main.cpp:330: 		x = x>=w ? w-1 : x; y = y>=h ? h-1 : y; z = z>=d ? d-1 : z;
	.loc 14 330 50 discriminator 8
	movq	16(%rbp), %rax	 # this, tmp104
	movl	48(%rax), %eax	 # this_18(D)->d, _5
 # src\main.cpp:330: 		x = x>=w ? w-1 : x; y = y>=h ? h-1 : y; z = z>=d ? d-1 : z;
	.loc 14 330 52 discriminator 8
	cmpl	%eax, 40(%rbp)	 # _5, z
	jb	.L255	 #,
 # src\main.cpp:330: 		x = x>=w ? w-1 : x; y = y>=h ? h-1 : y; z = z>=d ? d-1 : z;
	.loc 14 330 54 discriminator 9
	movq	16(%rbp), %rax	 # this, tmp105
	movl	48(%rax), %eax	 # this_18(D)->d, _6
 # src\main.cpp:330: 		x = x>=w ? w-1 : x; y = y>=h ? h-1 : y; z = z>=d ? d-1 : z;
	.loc 14 330 52 discriminator 9
	subl	$1, %eax	 #, iftmp.27_16
	jmp	.L256	 #
.L255:
 # src\main.cpp:330: 		x = x>=w ? w-1 : x; y = y>=h ? h-1 : y; z = z>=d ? d-1 : z;
	.loc 14 330 52 is_stmt 0 discriminator 10
	movl	40(%rbp), %eax	 # z, iftmp.27_16
.L256:
 # src\main.cpp:330: 		x = x>=w ? w-1 : x; y = y>=h ? h-1 : y; z = z>=d ? d-1 : z;
	.loc 14 330 45 is_stmt 1 discriminator 12
	movl	%eax, 40(%rbp)	 # iftmp.27_16, z
 # src\main.cpp:331: 		return z * (w * h) + y * w + x; 
	.loc 14 331 15 discriminator 12
	movq	16(%rbp), %rax	 # this, tmp106
	movl	40(%rax), %edx	 # this_18(D)->w, _7
 # src\main.cpp:331: 		return z * (w * h) + y * w + x; 
	.loc 14 331 19 discriminator 12
	movq	16(%rbp), %rax	 # this, tmp107
	movl	44(%rax), %eax	 # this_18(D)->h, _8
 # src\main.cpp:331: 		return z * (w * h) + y * w + x; 
	.loc 14 331 17 discriminator 12
	imull	%edx, %eax	 # _7, _9
 # src\main.cpp:331: 		return z * (w * h) + y * w + x; 
	.loc 14 331 12 discriminator 12
	imull	40(%rbp), %eax	 # z, _9
	movl	%eax, %edx	 # _9, _10
 # src\main.cpp:331: 		return z * (w * h) + y * w + x; 
	.loc 14 331 28 discriminator 12
	movq	16(%rbp), %rax	 # this, tmp108
	movl	40(%rax), %eax	 # this_18(D)->w, _11
 # src\main.cpp:331: 		return z * (w * h) + y * w + x; 
	.loc 14 331 26 discriminator 12
	imull	32(%rbp), %eax	 # y, _12
 # src\main.cpp:331: 		return z * (w * h) + y * w + x; 
	.loc 14 331 22 discriminator 12
	addl	%eax, %edx	 # _12, _13
 # src\main.cpp:331: 		return z * (w * h) + y * w + x; 
	.loc 14 331 32 discriminator 12
	movl	24(%rbp), %eax	 # x, tmp109
	addl	%edx, %eax	 # _13, _31
 # src\main.cpp:332: 	}
	.loc 14 332 2 discriminator 12
	popq	%rbp	 #
.LCFI299:
	ret	
.LFE10930:
	.seh_endproc
	.section .rdata,"dr"
	.align 8
.LC35:
	.ascii "\12WARNING: MaterialType: element::%d is greater than element::size. Defaulting to element::air\0"
	.section	.text$_ZN6MATRIX18ReadCellAttributesENS_4cellE,"x"
	.linkonce discard
	.align 2
	.globl	_ZN6MATRIX18ReadCellAttributesENS_4cellE
	.def	_ZN6MATRIX18ReadCellAttributesENS_4cellE;	.scl	2;	.type	32;	.endef
	.seh_proc	_ZN6MATRIX18ReadCellAttributesENS_4cellE
_ZN6MATRIX18ReadCellAttributesENS_4cellE:
.LFB10931:
	.loc 14 353 21
	pushq	%rbp	 #
	.seh_pushreg	%rbp
.LCFI300:
	pushq	%rbx	 #
	.seh_pushreg	%rbx
.LCFI301:
	subq	$40, %rsp	 #,
	.seh_stackalloc	40
.LCFI302:
	leaq	32(%rsp), %rbp	 #,
	.seh_setframe	%rbp, 32
.LCFI303:
	.seh_endprologue
	movq	%rcx, 32(%rbp)	 # .result_ptr, .result_ptr
	movq	%rdx, 40(%rbp)	 # this, this
	movq	%r8, 48(%rbp)	 # c, c
 # src\main.cpp:355: 		if(c.MaterialType >= element::size){ printf("\nWARNING: MaterialType: element::%d is greater than element::size. Defaulting to element::air", static_cast<uint32_t>(c.MaterialType)); }
	.loc 14 355 8
	movq	48(%rbp), %rax	 # c, tmp92
	movl	28(%rax), %eax	 # c_14(D)->MaterialType, _1
 # src\main.cpp:355: 		if(c.MaterialType >= element::size){ printf("\nWARNING: MaterialType: element::%d is greater than element::size. Defaulting to element::air", static_cast<uint32_t>(c.MaterialType)); }
	.loc 14 355 3
	cmpl	$5, %eax	 #, _2
	jle	.L259	 #,
 # src\main.cpp:355: 		if(c.MaterialType >= element::size){ printf("\nWARNING: MaterialType: element::%d is greater than element::size. Defaulting to element::air", static_cast<uint32_t>(c.MaterialType)); }
	.loc 14 355 169 discriminator 1
	movq	48(%rbp), %rax	 # c, tmp93
	movl	28(%rax), %eax	 # c_14(D)->MaterialType, _3
 # src\main.cpp:355: 		if(c.MaterialType >= element::size){ printf("\nWARNING: MaterialType: element::%d is greater than element::size. Defaulting to element::air", static_cast<uint32_t>(c.MaterialType)); }
	.loc 14 355 46 discriminator 1
	movl	%eax, %edx	 # _3,
	leaq	.LC35(%rip), %rax	 #, tmp94
	movq	%rax, %rcx	 # tmp94,
	call	_Z6printfPKcz	 #
.L259:
 # src\main.cpp:356: 		return c.MaterialType < element::size ? matAtt[static_cast<uint32_t>(c.MaterialType)] : matAtt[static_cast<uint32_t>(element::air)];
	.loc 14 356 12
	movq	48(%rbp), %rax	 # c, tmp95
	movl	28(%rax), %eax	 # c_14(D)->MaterialType, _4
 # src\main.cpp:356: 		return c.MaterialType < element::size ? matAtt[static_cast<uint32_t>(c.MaterialType)] : matAtt[static_cast<uint32_t>(element::air)];
	.loc 14 356 41
	cmpl	$5, %eax	 #, _5
	jg	.L260	 #,
 # src\main.cpp:356: 		return c.MaterialType < element::size ? matAtt[static_cast<uint32_t>(c.MaterialType)] : matAtt[static_cast<uint32_t>(element::air)];
	.loc 14 356 87 discriminator 1
	movq	40(%rbp), %rax	 # this, tmp96
	addq	$32, %rax	 #, _6
 # src\main.cpp:356: 		return c.MaterialType < element::size ? matAtt[static_cast<uint32_t>(c.MaterialType)] : matAtt[static_cast<uint32_t>(element::air)];
	.loc 14 356 74 discriminator 1
	movq	48(%rbp), %rdx	 # c, tmp97
	movl	28(%rdx), %edx	 # c_14(D)->MaterialType, _7
 # src\main.cpp:356: 		return c.MaterialType < element::size ? matAtt[static_cast<uint32_t>(c.MaterialType)] : matAtt[static_cast<uint32_t>(element::air)];
	.loc 14 356 87 discriminator 1
	movl	%edx, %edx	 # _7, _8
	movq	%rax, %rcx	 # _6,
	call	_ZNKSt10unique_ptrIA_N6MATRIX18MaterialAttributesESt14default_deleteIS2_EEixEy	 #
	jmp	.L261	 #
.L260:
 # src\main.cpp:356: 		return c.MaterialType < element::size ? matAtt[static_cast<uint32_t>(c.MaterialType)] : matAtt[static_cast<uint32_t>(element::air)];
	.loc 14 356 133 discriminator 2
	movq	40(%rbp), %rax	 # this, tmp98
	addq	$32, %rax	 #, _9
	movl	$0, %edx	 #,
	movq	%rax, %rcx	 # _9,
	call	_ZNKSt10unique_ptrIA_N6MATRIX18MaterialAttributesESt14default_deleteIS2_EEixEy	 #
.L261:
 # src\main.cpp:356: 		return c.MaterialType < element::size ? matAtt[static_cast<uint32_t>(c.MaterialType)] : matAtt[static_cast<uint32_t>(element::air)];
	.loc 14 356 133 is_stmt 0 discriminator 4
	movq	32(%rbp), %rdx	 # .result_ptr, tmp99
	movq	(%rax), %rcx	 # MEM[(const struct MaterialAttributes &)iftmp.74_10], tmp100
	movq	8(%rax), %rbx	 # MEM[(const struct MaterialAttributes &)iftmp.74_10],
	movq	%rcx, (%rdx)	 # tmp100, <retval>
	movq	%rbx, 8(%rdx)	 #, <retval>
	movq	16(%rax), %rcx	 # MEM[(const struct MaterialAttributes &)iftmp.74_10], tmp101
	movq	24(%rax), %rbx	 # MEM[(const struct MaterialAttributes &)iftmp.74_10],
	movq	%rcx, 16(%rdx)	 # tmp101, <retval>
	movq	%rbx, 24(%rdx)	 #, <retval>
	movq	32(%rax), %rax	 # MEM[(const struct MaterialAttributes &)iftmp.74_10], tmp102
	movq	%rax, 32(%rdx)	 # tmp102, <retval>
 # src\main.cpp:357: 	}
	.loc 14 357 2 is_stmt 1 discriminator 4
	movq	32(%rbp), %rax	 # .result_ptr,
	addq	$40, %rsp	 #,
	popq	%rbx	 #
.LCFI304:
	popq	%rbp	 #
.LCFI305:
	ret	
.LFE10931:
	.seh_endproc
	.section	.text$_ZN6CameraC1Ev,"x"
	.linkonce discard
	.align 2
	.globl	_ZN6CameraC1Ev
	.def	_ZN6CameraC1Ev;	.scl	2;	.type	32;	.endef
	.seh_proc	_ZN6CameraC1Ev
_ZN6CameraC1Ev:
.LFB10935:
	.loc 14 374 2
	pushq	%rbp	 #
	.seh_pushreg	%rbp
.LCFI306:
	movq	%rsp, %rbp	 #,
	.seh_setframe	%rbp, 0
.LCFI307:
	subq	$32, %rsp	 #,
	.seh_stackalloc	32
	.seh_endprologue
	movq	%rcx, 16(%rbp)	 # this, this
.LBB143:
 # src\main.cpp:374: 	Camera() : FOV(90.0f) {}
	.loc 14 374 22
	movq	16(%rbp), %rax	 # this, _1
	pxor	%xmm3, %xmm3	 #
	pxor	%xmm2, %xmm2	 #
	pxor	%xmm1, %xmm1	 #
	movq	%rax, %rcx	 # _1,
	call	_ZN5Vec3DC1Efff	 #
	movq	16(%rbp), %rax	 # this, tmp88
	addq	$12, %rax	 #, _2
	pxor	%xmm3, %xmm3	 #
	pxor	%xmm2, %xmm2	 #
	pxor	%xmm1, %xmm1	 #
	movq	%rax, %rcx	 # _2,
	call	_ZN5Vec3DC1Efff	 #
	movq	16(%rbp), %rax	 # this, tmp89
	addq	$24, %rax	 #, _3
	pxor	%xmm3, %xmm3	 #
	pxor	%xmm2, %xmm2	 #
	pxor	%xmm1, %xmm1	 #
	movq	%rax, %rcx	 # _3,
	call	_ZN5Vec3DC1Efff	 #
	movq	16(%rbp), %rax	 # this, tmp90
	addq	$36, %rax	 #, _4
	pxor	%xmm3, %xmm3	 #
	pxor	%xmm2, %xmm2	 #
	pxor	%xmm1, %xmm1	 #
	movq	%rax, %rcx	 # _4,
	call	_ZN5Vec3DC1Efff	 #
	movq	16(%rbp), %rax	 # this, tmp91
	addq	$48, %rax	 #, _5
	pxor	%xmm3, %xmm3	 #
	pxor	%xmm2, %xmm2	 #
	pxor	%xmm1, %xmm1	 #
	movq	%rax, %rcx	 # _5,
	call	_ZN5Vec3DC1Efff	 #
	movq	16(%rbp), %rax	 # this, tmp92
	addq	$60, %rax	 #, _6
	pxor	%xmm3, %xmm3	 #
	pxor	%xmm2, %xmm2	 #
	pxor	%xmm1, %xmm1	 #
	movq	%rax, %rcx	 # _6,
	call	_ZN5Vec3DC1Efff	 #
 # src\main.cpp:374: 	Camera() : FOV(90.0f) {}
	.loc 14 374 13
	movq	16(%rbp), %rax	 # this, tmp93
	movss	.LC36(%rip), %xmm0	 #, tmp94
	movss	%xmm0, 72(%rax)	 # tmp94, this_8(D)->FOV
.LBE143:
 # src\main.cpp:374: 	Camera() : FOV(90.0f) {}
	.loc 14 374 25
	nop	
	addq	$32, %rsp	 #,
	popq	%rbp	 #
.LCFI308:
	ret	
.LFE10935:
	.seh_endproc
	.section .rdata,"dr"
	.align 8
.LC37:
	.ascii "D\0"
	.ascii "2\0D\0"
	.ascii "1\0C\0r\0e\0a\0t\0e\0F\0a\0c\0t\0o\0r\0y\0 \0f\0a\0i\0l\0e\0d\0 \0w\0i\0t\0h\0 \0H\0R\0E\0S\0U\0L\0T\0:\0 \0"
	.ascii "0\0x\0%\0"
	.ascii "0\0"
	.ascii "8\0X\0\0\0"
	.align 2
.LC38:
	.ascii "E\0r\0r\0o\0r\0\0\0"
	.section	.text$_ZN21WINDOWGraphicsOverlay11ErrorHandleEl,"x"
	.linkonce discard
	.globl	_ZN21WINDOWGraphicsOverlay11ErrorHandleEl
	.def	_ZN21WINDOWGraphicsOverlay11ErrorHandleEl;	.scl	2;	.type	32;	.endef
	.seh_proc	_ZN21WINDOWGraphicsOverlay11ErrorHandleEl
_ZN21WINDOWGraphicsOverlay11ErrorHandleEl:
.LFB10941:
	.loc 14 499 2
	pushq	%rbp	 #
	.seh_pushreg	%rbp
.LCFI309:
	subq	$1056, %rsp	 #,
	.seh_stackalloc	1056
.LCFI310:
	leaq	128(%rsp), %rbp	 #,
	.seh_setframe	%rbp, 128
.LCFI311:
	.seh_endprologue
	movl	%ecx, 944(%rbp)	 # hr, hr
.LBB144:
 # src\main.cpp:500: 		if(FAILED(hr))
	.loc 14 500 3
	cmpl	$0, 944(%rbp)	 #, hr
	jns	.L266	 #,
.LBB145:
 # src\main.cpp:503:        		swprintf_s(errorMsg, L"D2D1CreateFactory failed with HRESULT: 0x%08X", hr);
	.loc 14 503 20
	movl	944(%rbp), %edx	 # hr, tmp82
	leaq	-96(%rbp), %rax	 #, tmp83
	movl	%edx, %r8d	 # tmp82,
	leaq	.LC37(%rip), %rdx	 #, tmp84
	movq	%rax, %rcx	 # tmp83,
	call	_Z10swprintf_sILy512EEiRAT__wPKwz	 #
 # src\main.cpp:504:        		MessageBoxW(0, errorMsg, L"Error", MB_ICONERROR);
	.loc 14 504 21
	leaq	-96(%rbp), %rax	 #, tmp85
	movl	$16, %r9d	 #,
	leaq	.LC38(%rip), %r8	 #,
	movq	%rax, %rdx	 # tmp85,
	movl	$0, %ecx	 #,
	movq	__imp_MessageBoxW(%rip), %rax	 #, tmp86
	call	*%rax	 # tmp86
.LVL8:
.L266:
.LBE145:
.LBE144:
 # src\main.cpp:506: 	}
	.loc 14 506 2
	nop	
	addq	$1056, %rsp	 #,
	popq	%rbp	 #
.LCFI312:
	ret	
.LFE10941:
	.seh_endproc
	.text
	.globl	_ZN21WINDOWGraphicsOverlay16GetMaterialColorEN6MATRIX7elementE
	.def	_ZN21WINDOWGraphicsOverlay16GetMaterialColorEN6MATRIX7elementE;	.scl	2;	.type	32;	.endef
	.seh_proc	_ZN21WINDOWGraphicsOverlay16GetMaterialColorEN6MATRIX7elementE
_ZN21WINDOWGraphicsOverlay16GetMaterialColorEN6MATRIX7elementE:
.LFB10942:
	.loc 14 508 2
	pushq	%rbp	 #
	.seh_pushreg	%rbp
.LCFI313:
	movq	%rsp, %rbp	 #,
	.seh_setframe	%rbp, 0
.LCFI314:
	.seh_endprologue
	movl	%ecx, 16(%rbp)	 # e, e
 # src\main.cpp:509: 		switch(e)
	.loc 14 509 10
	movl	16(%rbp), %eax	 # e, e.0_1
 # src\main.cpp:509: 		switch(e)
	.loc 14 509 3
	cmpl	$4, %eax	 #, e.0_1
	ja	.L268	 #,
	movl	%eax, %eax	 # e.0_1, tmp85
	leaq	0(,%rax,4), %rdx	 #, tmp86
	leaq	.L270(%rip), %rax	 #, tmp87
	movl	(%rdx,%rax), %eax	 #, tmp88
	cltq
	leaq	.L270(%rip), %rdx	 #, tmp91
	addq	%rdx, %rax	 # tmp91, tmp90
	jmp	*%rax	 # tmp90
	.section .rdata,"dr"
	.align 4
.L270:
	.long	.L274-.L270
	.long	.L273-.L270
	.long	.L272-.L270
	.long	.L271-.L270
	.long	.L269-.L270
	.text
.L274:
 # src\main.cpp:511: 			case MATRIX::element::air:   return RGB(173, 216, 230); break;
	.loc 14 511 40
	movl	$15128749, %eax	 #, _2
	jmp	.L275	 #
.L273:
 # src\main.cpp:512: 			case MATRIX::element::water: return RGB(0, 0, 255);     break;
	.loc 14 512 40
	movl	$16711680, %eax	 #, _2
	jmp	.L275	 #
.L272:
 # src\main.cpp:513: 			case MATRIX::element::wood:  return RGB(139, 69, 19);   break;
	.loc 14 513 40
	movl	$1262987, %eax	 #, _2
	jmp	.L275	 #
.L271:
 # src\main.cpp:514: 			case MATRIX::element::fire:  return RGB(255, 0, 0);     break;
	.loc 14 514 40
	movl	$255, %eax	 #, _2
	jmp	.L275	 #
.L269:
 # src\main.cpp:515: 			case MATRIX::element::metal: return RGB(169, 169, 169); break;
	.loc 14 515 40
	movl	$11119017, %eax	 #, _2
	jmp	.L275	 #
.L268:
 # src\main.cpp:516: 			default:                	 return RGB(0, 0, 0); break;
	.loc 14 516 37
	movl	$0, %eax	 #, _2
.L275:
 # src\main.cpp:518: 	}
	.loc 14 518 2
	popq	%rbp	 #
.LCFI315:
	ret	
.LFE10942:
	.seh_endproc
	.section	.text$_ZN21WINDOWGraphicsOverlay14AllocBrushPoolEP6HWND__,"x"
	.linkonce discard
	.globl	_ZN21WINDOWGraphicsOverlay14AllocBrushPoolEP6HWND__
	.def	_ZN21WINDOWGraphicsOverlay14AllocBrushPoolEP6HWND__;	.scl	2;	.type	32;	.endef
	.seh_proc	_ZN21WINDOWGraphicsOverlay14AllocBrushPoolEP6HWND__
_ZN21WINDOWGraphicsOverlay14AllocBrushPoolEP6HWND__:
.LFB10943:
	.loc 14 521 2
	pushq	%rbp	 #
	.seh_pushreg	%rbp
.LCFI316:
	movq	%rsp, %rbp	 #,
	.seh_setframe	%rbp, 0
.LCFI317:
	subq	$80, %rsp	 #,
	.seh_stackalloc	80
	.seh_endprologue
	movq	%rcx, 16(%rbp)	 # hwnd, hwnd
 # src\main.cpp:523: 		MATRIX* matrix = reinterpret_cast<MATRIX*>(GetWindowLongPtr(hwnd, GWLP_USERDATA));
	.loc 14 523 62
	movq	16(%rbp), %rax	 # hwnd, tmp116
	movl	$-21, %edx	 #,
	movq	%rax, %rcx	 # tmp116,
	movq	__imp_GetWindowLongPtrW(%rip), %rax	 #, tmp117
	call	*%rax	 # tmp117
.LVL9:
 # src\main.cpp:523: 		MATRIX* matrix = reinterpret_cast<MATRIX*>(GetWindowLongPtr(hwnd, GWLP_USERDATA));
	.loc 14 523 83
	movq	%rax, -16(%rbp)	 # _1, matrix
 # src\main.cpp:525: 		uint32_t N = static_cast<uint32_t>(MATRIX::element::size);
	.loc 14 525 12
	movl	$6, -20(%rbp)	 #, N
 # src\main.cpp:527: 		memory = static_cast<void**>(malloc(sizeof(ID2D1SolidColorBrush*) * N));
	.loc 14 527 71
	movl	-20(%rbp), %eax	 # N, _2
 # src\main.cpp:527: 		memory = static_cast<void**>(malloc(sizeof(ID2D1SolidColorBrush*) * N));
	.loc 14 527 38
	salq	$3, %rax	 #, _3
	movq	%rax, %rcx	 # _3,
	call	malloc	 #
 # src\main.cpp:527: 		memory = static_cast<void**>(malloc(sizeof(ID2D1SolidColorBrush*) * N));
	.loc 14 527 10
	movq	%rax, memory(%rip)	 # _4, memory
 # src\main.cpp:528: 		brushPool 	  = reinterpret_cast<ID2D1SolidColorBrush**>(memory);
	.loc 14 528 16
	movq	memory(%rip), %rax	 # memory, memory.104_5
	movq	%rax, brushPool(%rip)	 # memory.104_5, brushPool
.LBB146:
 # src\main.cpp:530: 		for(uint32_t i=0; i<=N -1; ++i)
	.loc 14 530 16
	movl	$0, -4(%rbp)	 #, i
 # src\main.cpp:530: 		for(uint32_t i=0; i<=N -1; ++i)
	.loc 14 530 3
	jmp	.L277	 #
.L278:
 # src\main.cpp:532: 			brushPool[i] = nullptr;
	.loc 14 532 15 discriminator 3
	movq	brushPool(%rip), %rax	 # brushPool, brushPool.105_6
 # src\main.cpp:532: 			brushPool[i] = nullptr;
	.loc 14 532 14 discriminator 3
	movl	-4(%rbp), %edx	 # i, _7
 # src\main.cpp:532: 			brushPool[i] = nullptr;
	.loc 14 532 15 discriminator 3
	salq	$3, %rdx	 #, _8
	addq	%rdx, %rax	 # _8, _9
 # src\main.cpp:532: 			brushPool[i] = nullptr;
	.loc 14 532 17 discriminator 3
	movq	$0, (%rax)	 #, *_9
 # src\main.cpp:530: 		for(uint32_t i=0; i<=N -1; ++i)
	.loc 14 530 3 discriminator 3
	addl	$1, -4(%rbp)	 #, i
.L277:
 # src\main.cpp:530: 		for(uint32_t i=0; i<=N -1; ++i)
	.loc 14 530 26 discriminator 1
	movl	-20(%rbp), %eax	 # N, tmp119
	subl	$1, %eax	 #, _10
 # src\main.cpp:530: 		for(uint32_t i=0; i<=N -1; ++i)
	.loc 14 530 22 discriminator 1
	cmpl	-4(%rbp), %eax	 # i, _10
	jnb	.L278	 #,
.LBE146:
.LBB147:
 # src\main.cpp:535: 		for(uint32_t i=0; i<=N -1; ++i)
	.loc 14 535 16
	movl	$0, -8(%rbp)	 #, i
 # src\main.cpp:535: 		for(uint32_t i=0; i<=N -1; ++i)
	.loc 14 535 3
	jmp	.L279	 #
.L281:
.LBB148:
 # src\main.cpp:537: 			COLORREF Color 		  = WINDOWGraphicsOverlay::GetMaterialColor(static_cast<MATRIX::element>(i));
	.loc 14 537 64
	movl	-8(%rbp), %eax	 # i, tmp120
	movl	%eax, %ecx	 # tmp120,
	call	_ZN21WINDOWGraphicsOverlay16GetMaterialColorEN6MATRIX7elementE	 #
	movl	%eax, -24(%rbp)	 # tmp121, Color
 # src\main.cpp:538: 			D2D1_COLOR_F d2dcolor = {GetRValue(Color) / 255.0f, GetGValue(Color) / 255.0f, GetBValue(Color) / 255.0f, 1.0f};
	.loc 14 538 17
	movq	$0, -48(%rbp)	 #, d2dcolor
	movq	$0, -40(%rbp)	 #, d2dcolor
	movss	.LC39(%rip), %xmm0	 #, tmp122
	movss	%xmm0, -36(%rbp)	 # tmp122, d2dcolor.a
 # src\main.cpp:538: 			D2D1_COLOR_F d2dcolor = {GetRValue(Color) / 255.0f, GetGValue(Color) / 255.0f, GetBValue(Color) / 255.0f, 1.0f};
	.loc 14 538 29
	movl	-24(%rbp), %eax	 # Color, tmp123
	movzbl	%al, %eax	 # _11, _12
 # src\main.cpp:538: 			D2D1_COLOR_F d2dcolor = {GetRValue(Color) / 255.0f, GetGValue(Color) / 255.0f, GetBValue(Color) / 255.0f, 1.0f};
	.loc 14 538 46
	pxor	%xmm0, %xmm0	 # _13
	cvtsi2ssl	%eax, %xmm0	 # _12, _13
	movss	.LC40(%rip), %xmm1	 #, tmp124
	divss	%xmm1, %xmm0	 # tmp124, _14
 # src\main.cpp:538: 			D2D1_COLOR_F d2dcolor = {GetRValue(Color) / 255.0f, GetGValue(Color) / 255.0f, GetBValue(Color) / 255.0f, 1.0f};
	.loc 14 538 114
	movss	%xmm0, -48(%rbp)	 # _14, d2dcolor.r
 # src\main.cpp:538: 			D2D1_COLOR_F d2dcolor = {GetRValue(Color) / 255.0f, GetGValue(Color) / 255.0f, GetBValue(Color) / 255.0f, 1.0f};
	.loc 14 538 56
	movl	-24(%rbp), %eax	 # Color, tmp125
	shrw	$8, %ax	 #, _16
	movzbl	%al, %eax	 # _17, _18
 # src\main.cpp:538: 			D2D1_COLOR_F d2dcolor = {GetRValue(Color) / 255.0f, GetGValue(Color) / 255.0f, GetBValue(Color) / 255.0f, 1.0f};
	.loc 14 538 73
	pxor	%xmm0, %xmm0	 # _19
	cvtsi2ssl	%eax, %xmm0	 # _18, _19
	movss	.LC40(%rip), %xmm1	 #, tmp126
	divss	%xmm1, %xmm0	 # tmp126, _20
 # src\main.cpp:538: 			D2D1_COLOR_F d2dcolor = {GetRValue(Color) / 255.0f, GetGValue(Color) / 255.0f, GetBValue(Color) / 255.0f, 1.0f};
	.loc 14 538 114
	movss	%xmm0, -44(%rbp)	 # _20, d2dcolor.g
 # src\main.cpp:538: 			D2D1_COLOR_F d2dcolor = {GetRValue(Color) / 255.0f, GetGValue(Color) / 255.0f, GetBValue(Color) / 255.0f, 1.0f};
	.loc 14 538 83
	movl	-24(%rbp), %eax	 # Color, tmp127
	shrl	$16, %eax	 #, _21
	movzbl	%al, %eax	 # _22, _23
 # src\main.cpp:538: 			D2D1_COLOR_F d2dcolor = {GetRValue(Color) / 255.0f, GetGValue(Color) / 255.0f, GetBValue(Color) / 255.0f, 1.0f};
	.loc 14 538 100
	pxor	%xmm0, %xmm0	 # _24
	cvtsi2ssl	%eax, %xmm0	 # _23, _24
	movss	.LC40(%rip), %xmm1	 #, tmp128
	divss	%xmm1, %xmm0	 # tmp128, _25
 # src\main.cpp:538: 			D2D1_COLOR_F d2dcolor = {GetRValue(Color) / 255.0f, GetGValue(Color) / 255.0f, GetBValue(Color) / 255.0f, 1.0f};
	.loc 14 538 114
	movss	%xmm0, -40(%rbp)	 # _25, d2dcolor.b
.LBB149:
 # src\main.cpp:539: 			if(BitmapRT) { HRESULT hr = BitmapRT->CreateSolidColorBrush(d2dcolor, &brushPool[i]); ErrorHandle(hr); }
	.loc 14 539 7
	movq	BitmapRT(%rip), %rax	 # BitmapRT, BitmapRT.106_26
 # src\main.cpp:539: 			if(BitmapRT) { HRESULT hr = BitmapRT->CreateSolidColorBrush(d2dcolor, &brushPool[i]); ErrorHandle(hr); }
	.loc 14 539 4
	testq	%rax, %rax	 # BitmapRT.106_26
	je	.L280	 #,
.LBB150:
 # src\main.cpp:539: 			if(BitmapRT) { HRESULT hr = BitmapRT->CreateSolidColorBrush(d2dcolor, &brushPool[i]); ErrorHandle(hr); }
	.loc 14 539 63 discriminator 1
	movq	BitmapRT(%rip), %rax	 # BitmapRT, BitmapRT.107_27
	movq	%rax, %rcx	 # BitmapRT.107_27, _28
	movq	brushPool(%rip), %rax	 # brushPool, brushPool.108_29
 # src\main.cpp:539: 			if(BitmapRT) { HRESULT hr = BitmapRT->CreateSolidColorBrush(d2dcolor, &brushPool[i]); ErrorHandle(hr); }
	.loc 14 539 85 discriminator 1
	movl	-8(%rbp), %edx	 # i, _30
 # src\main.cpp:539: 			if(BitmapRT) { HRESULT hr = BitmapRT->CreateSolidColorBrush(d2dcolor, &brushPool[i]); ErrorHandle(hr); }
	.loc 14 539 86 discriminator 1
	salq	$3, %rdx	 #, _31
 # src\main.cpp:539: 			if(BitmapRT) { HRESULT hr = BitmapRT->CreateSolidColorBrush(d2dcolor, &brushPool[i]); ErrorHandle(hr); }
	.loc 14 539 63 discriminator 1
	addq	%rax, %rdx	 # brushPool.108_29, _32
	leaq	-48(%rbp), %rax	 #, tmp129
	movq	%rdx, %r8	 # _32,
	movq	%rax, %rdx	 # tmp129,
	call	_ZN17ID2D1RenderTarget21CreateSolidColorBrushERK14_D3DCOLORVALUEPP20ID2D1SolidColorBrush	 #
	movl	%eax, -28(%rbp)	 # _59, hr
 # src\main.cpp:539: 			if(BitmapRT) { HRESULT hr = BitmapRT->CreateSolidColorBrush(d2dcolor, &brushPool[i]); ErrorHandle(hr); }
	.loc 14 539 101 discriminator 1
	movl	-28(%rbp), %eax	 # hr, tmp130
	movl	%eax, %ecx	 # tmp130,
	call	_ZN21WINDOWGraphicsOverlay11ErrorHandleEl	 #
.L280:
.LBE150:
.LBE149:
.LBE148:
 # src\main.cpp:535: 		for(uint32_t i=0; i<=N -1; ++i)
	.loc 14 535 3 discriminator 2
	addl	$1, -8(%rbp)	 #, i
.L279:
 # src\main.cpp:535: 		for(uint32_t i=0; i<=N -1; ++i)
	.loc 14 535 26 discriminator 1
	movl	-20(%rbp), %eax	 # N, tmp131
	subl	$1, %eax	 #, _33
 # src\main.cpp:535: 		for(uint32_t i=0; i<=N -1; ++i)
	.loc 14 535 22 discriminator 1
	cmpl	-8(%rbp), %eax	 # i, _33
	jnb	.L281	 #,
.LBE147:
 # src\main.cpp:541: 	}
	.loc 14 541 2
	nop	
	nop	
	addq	$80, %rsp	 #,
	popq	%rbp	 #
.LCFI318:
	ret	
.LFE10943:
	.seh_endproc
	.section .rdata,"dr"
.LC41:
	.ascii "bad BitmapRT\0"
	.text
	.globl	_ZN21WINDOWGraphicsOverlay11blitOverlayEP6HWND__jii
	.def	_ZN21WINDOWGraphicsOverlay11blitOverlayEP6HWND__jii;	.scl	2;	.type	32;	.endef
	.seh_proc	_ZN21WINDOWGraphicsOverlay11blitOverlayEP6HWND__jii
_ZN21WINDOWGraphicsOverlay11blitOverlayEP6HWND__jii:
.LFB10944:
	.loc 14 544 2
	pushq	%rbp	 #
	.seh_pushreg	%rbp
.LCFI319:
	pushq	%r12	 #
	.seh_pushreg	%r12
.LCFI320:
	pushq	%rdi	 #
	.seh_pushreg	%rdi
.LCFI321:
	pushq	%rsi	 #
	.seh_pushreg	%rsi
.LCFI322:
	pushq	%rbx	 #
	.seh_pushreg	%rbx
.LCFI323:
	subq	$144, %rsp	 #,
	.seh_stackalloc	144
.LCFI324:
	leaq	144(%rsp), %rbp	 #,
	.seh_setframe	%rbp, 144
.LCFI325:
	.seh_endprologue
	movq	%rcx, 48(%rbp)	 # hwnd, hwnd
	movl	%edx, 56(%rbp)	 # zLevel, zLevel
	movl	%r8d, 64(%rbp)	 # cellWidth, cellWidth
	movl	%r9d, 72(%rbp)	 # cellHeight, cellHeight
 # src\main.cpp:545: 		MATRIX* matrix = reinterpret_cast<MATRIX*>(GetWindowLongPtr(hwnd, GWLP_USERDATA));
	.loc 14 545 62
	movq	48(%rbp), %rax	 # hwnd, tmp168
	movl	$-21, %edx	 #,
	movq	%rax, %rcx	 # tmp168,
	movq	__imp_GetWindowLongPtrW(%rip), %rax	 #, tmp169
	call	*%rax	 # tmp169
.LVL10:
 # src\main.cpp:545: 		MATRIX* matrix = reinterpret_cast<MATRIX*>(GetWindowLongPtr(hwnd, GWLP_USERDATA));
	.loc 14 545 83
	movq	%rax, -16(%rbp)	 # _1, matrix
 # src\main.cpp:547: 		if(!BitmapRT)
	.loc 14 547 6
	movq	BitmapRT(%rip), %rax	 # BitmapRT, BitmapRT.1_2
 # src\main.cpp:547: 		if(!BitmapRT)
	.loc 14 547 3
	testq	%rax, %rax	 # BitmapRT.1_2
	jne	.L283	 #,
 # src\main.cpp:549: 			printf("bad BitmapRT");
	.loc 14 549 10
	leaq	.LC41(%rip), %rax	 #, tmp170
	movq	%rax, %rcx	 # tmp170,
	call	_Z6printfPKcz	 #
 # src\main.cpp:550: 			return false;
	.loc 14 550 11
	movl	$0, %eax	 #, _107
	jmp	.L282	 #
.L283:
 # src\main.cpp:553: 		BitmapRT->BeginDraw();
	.loc 14 553 22
	movq	BitmapRT(%rip), %rax	 # BitmapRT, BitmapRT.3_5
	movq	(%rax), %rax	 # BitmapRT.3_5->D.201369.D.200640.D.199868._vptr.IUnknown, _6
	addq	$384, %rax	 #, _7
	movq	(%rax), %rax	 # *_7, _8
	movq	BitmapRT(%rip), %rdx	 # BitmapRT, BitmapRT.4_9
	movq	%rdx, %rcx	 # _10,
	call	*%rax	 # _8
.LVL11:
 # src\main.cpp:554: 		BitmapRT->Clear(D2D1::ColorF(D2D1::ColorF::Black));
	.loc 14 554 18
	movq	BitmapRT(%rip), %rax	 # BitmapRT, BitmapRT.5_11
	movq	%rax, %rcx	 # BitmapRT.5_11, _12
	movl	$0, -24(%rbp)	 #, knownColor
	movss	.LC39(%rip), %xmm0	 #, tmp171
	movss	%xmm0, -28(%rbp)	 # tmp171, _a
	leaq	-96(%rbp), %rax	 #, tmp172
	movq	%rax, -40(%rbp)	 # tmp172, this
	movl	-24(%rbp), %eax	 # knownColor, tmp173
	movl	%eax, -44(%rbp)	 # tmp173, rgb
	movss	-28(%rbp), %xmm0	 # _a, tmp174
	movss	%xmm0, -48(%rbp)	 # tmp174, _a
.LBB151:
.LBB152:
.LBB153:
.LBB154:
.LBB155:
 # C:/msys64/mingw64/include/d2d1helper.h:360:         r = static_cast<float>((rgb>>16)&0xff)/255.0f;
	.file 16 "C:/msys64/mingw64/include/d2d1helper.h"
	.loc 16 360 36
	movl	-44(%rbp), %eax	 # rgb, tmp175
	shrl	$16, %eax	 #, _113
 # C:/msys64/mingw64/include/d2d1helper.h:360:         r = static_cast<float>((rgb>>16)&0xff)/255.0f;
	.loc 16 360 41
	movzbl	%al, %eax	 # _113, _114
 # C:/msys64/mingw64/include/d2d1helper.h:360:         r = static_cast<float>((rgb>>16)&0xff)/255.0f;
	.loc 16 360 13
	movl	%eax, %eax	 # _114, tmp176
	testq	%rax, %rax	 # tmp176
	js	.L285	 #,
	pxor	%xmm0, %xmm0	 # _115
	cvtsi2ssq	%rax, %xmm0	 # tmp176, _115
	jmp	.L286	 #
.L285:
	movq	%rax, %rdx	 # tmp176, tmp178
	shrq	%rdx	 # tmp178
	andl	$1, %eax	 #, tmp179
	orq	%rax, %rdx	 # tmp179, tmp178
	pxor	%xmm0, %xmm0	 # tmp177
	cvtsi2ssq	%rdx, %xmm0	 # tmp178, tmp177
	addss	%xmm0, %xmm0	 # tmp177, _115
.L286:
 # C:/msys64/mingw64/include/d2d1helper.h:360:         r = static_cast<float>((rgb>>16)&0xff)/255.0f;
	.loc 16 360 47
	movss	.LC40(%rip), %xmm1	 #, tmp180
	divss	%xmm1, %xmm0	 # tmp180, _116
 # C:/msys64/mingw64/include/d2d1helper.h:360:         r = static_cast<float>((rgb>>16)&0xff)/255.0f;
	.loc 16 360 11
	movq	-40(%rbp), %rax	 # this, tmp181
	movss	%xmm0, (%rax)	 # _116, this_110->D.203202.r
 # C:/msys64/mingw64/include/d2d1helper.h:361:         g = static_cast<float>((rgb>>8)&0xff)/255.0f;
	.loc 16 361 36
	movl	-44(%rbp), %eax	 # rgb, tmp182
	shrl	$8, %eax	 #, _117
 # C:/msys64/mingw64/include/d2d1helper.h:361:         g = static_cast<float>((rgb>>8)&0xff)/255.0f;
	.loc 16 361 40
	movzbl	%al, %eax	 # _117, _118
 # C:/msys64/mingw64/include/d2d1helper.h:361:         g = static_cast<float>((rgb>>8)&0xff)/255.0f;
	.loc 16 361 13
	movl	%eax, %eax	 # _118, tmp183
	testq	%rax, %rax	 # tmp183
	js	.L287	 #,
	pxor	%xmm0, %xmm0	 # _119
	cvtsi2ssq	%rax, %xmm0	 # tmp183, _119
	jmp	.L288	 #
.L287:
	movq	%rax, %rdx	 # tmp183, tmp185
	shrq	%rdx	 # tmp185
	andl	$1, %eax	 #, tmp186
	orq	%rax, %rdx	 # tmp186, tmp185
	pxor	%xmm0, %xmm0	 # tmp184
	cvtsi2ssq	%rdx, %xmm0	 # tmp185, tmp184
	addss	%xmm0, %xmm0	 # tmp184, _119
.L288:
 # C:/msys64/mingw64/include/d2d1helper.h:361:         g = static_cast<float>((rgb>>8)&0xff)/255.0f;
	.loc 16 361 46
	movss	.LC40(%rip), %xmm1	 #, tmp187
	divss	%xmm1, %xmm0	 # tmp187, _120
 # C:/msys64/mingw64/include/d2d1helper.h:361:         g = static_cast<float>((rgb>>8)&0xff)/255.0f;
	.loc 16 361 11
	movq	-40(%rbp), %rax	 # this, tmp188
	movss	%xmm0, 4(%rax)	 # _120, this_110->D.203202.g
 # C:/msys64/mingw64/include/d2d1helper.h:362:         b = static_cast<float>(rgb&0xff)/255.0f;
	.loc 16 362 35
	movl	-44(%rbp), %eax	 # rgb, tmp189
	movzbl	%al, %eax	 # tmp189, _121
 # C:/msys64/mingw64/include/d2d1helper.h:362:         b = static_cast<float>(rgb&0xff)/255.0f;
	.loc 16 362 13
	movl	%eax, %eax	 # _121, tmp190
	testq	%rax, %rax	 # tmp190
	js	.L289	 #,
	pxor	%xmm0, %xmm0	 # _122
	cvtsi2ssq	%rax, %xmm0	 # tmp190, _122
	jmp	.L290	 #
.L289:
	movq	%rax, %rdx	 # tmp190, tmp192
	shrq	%rdx	 # tmp192
	andl	$1, %eax	 #, tmp193
	orq	%rax, %rdx	 # tmp193, tmp192
	pxor	%xmm0, %xmm0	 # tmp191
	cvtsi2ssq	%rdx, %xmm0	 # tmp192, tmp191
	addss	%xmm0, %xmm0	 # tmp191, _122
.L290:
 # C:/msys64/mingw64/include/d2d1helper.h:362:         b = static_cast<float>(rgb&0xff)/255.0f;
	.loc 16 362 41
	movss	.LC40(%rip), %xmm1	 #, tmp194
	divss	%xmm1, %xmm0	 # tmp194, _123
 # C:/msys64/mingw64/include/d2d1helper.h:362:         b = static_cast<float>(rgb&0xff)/255.0f;
	.loc 16 362 11
	movq	-40(%rbp), %rax	 # this, tmp195
	movss	%xmm0, 8(%rax)	 # _123, this_110->D.203202.b
 # C:/msys64/mingw64/include/d2d1helper.h:363:         a = _a;
	.loc 16 363 11
	movq	-40(%rbp), %rax	 # this, tmp196
	movss	-48(%rbp), %xmm0	 # _a, tmp197
	movss	%xmm0, 12(%rax)	 # tmp197, this_110->D.203202.a
 # C:/msys64/mingw64/include/d2d1helper.h:364:     }
	.loc 16 364 5
	nop	
.LBE155:
.LBE154:
.LBE153:
 # C:/msys64/mingw64/include/d2d1helper.h:350:     }
	.loc 16 350 5
	nop	
.LBE152:
.LBE151:
 # src\main.cpp:554: 		BitmapRT->Clear(D2D1::ColorF(D2D1::ColorF::Black));
	.loc 14 554 18
	leaq	-96(%rbp), %rax	 #, tmp198
	movq	%rax, %rdx	 # tmp198,
	call	_ZN17ID2D1RenderTarget5ClearERK14_D3DCOLORVALUE	 #
.LBB156:
 # src\main.cpp:556: 		for (int j = 0; j < matrix->h; ++j)
	.loc 14 556 12
	movl	$0, -4(%rbp)	 #, j
 # src\main.cpp:556: 		for (int j = 0; j < matrix->h; ++j)
	.loc 14 556 3
	jmp	.L291	 #
.L296:
.LBB157:
.LBB158:
 # src\main.cpp:558:     		for (int i = 0; i < matrix->w; ++i)
	.loc 14 558 16
	movl	$0, -8(%rbp)	 #, i
 # src\main.cpp:558:     		for (int i = 0; i < matrix->w; ++i)
	.loc 14 558 7
	jmp	.L292	 #
.L295:
.LBB159:
 # src\main.cpp:560: 				D2D1_RECT_F rect = D2D1::RectF( static_cast<float>(i * cellWidth), static_cast<float>(j * cellHeight), static_cast<float>((i + 1) * cellWidth), static_cast<float>((j + 1) * cellHeight) );
	.loc 14 560 171
	movl	-4(%rbp), %eax	 # j, tmp199
	addl	$1, %eax	 #, _13
 # src\main.cpp:560: 				D2D1_RECT_F rect = D2D1::RectF( static_cast<float>(i * cellWidth), static_cast<float>(j * cellHeight), static_cast<float>((i + 1) * cellWidth), static_cast<float>((j + 1) * cellHeight) );
	.loc 14 560 176
	imull	72(%rbp), %eax	 # cellHeight, _14
 # src\main.cpp:560: 				D2D1_RECT_F rect = D2D1::RectF( static_cast<float>(i * cellWidth), static_cast<float>(j * cellHeight), static_cast<float>((i + 1) * cellWidth), static_cast<float>((j + 1) * cellHeight) );
	.loc 14 560 35
	pxor	%xmm0, %xmm0	 # _15
	cvtsi2ssl	%eax, %xmm0	 # _14, _15
 # src\main.cpp:560: 				D2D1_RECT_F rect = D2D1::RectF( static_cast<float>(i * cellWidth), static_cast<float>(j * cellHeight), static_cast<float>((i + 1) * cellWidth), static_cast<float>((j + 1) * cellHeight) );
	.loc 14 560 130
	movl	-8(%rbp), %eax	 # i, tmp200
	addl	$1, %eax	 #, _16
 # src\main.cpp:560: 				D2D1_RECT_F rect = D2D1::RectF( static_cast<float>(i * cellWidth), static_cast<float>(j * cellHeight), static_cast<float>((i + 1) * cellWidth), static_cast<float>((j + 1) * cellHeight) );
	.loc 14 560 135
	imull	64(%rbp), %eax	 # cellWidth, _17
 # src\main.cpp:560: 				D2D1_RECT_F rect = D2D1::RectF( static_cast<float>(i * cellWidth), static_cast<float>(j * cellHeight), static_cast<float>((i + 1) * cellWidth), static_cast<float>((j + 1) * cellHeight) );
	.loc 14 560 35
	pxor	%xmm1, %xmm1	 # _18
	cvtsi2ssl	%eax, %xmm1	 # _17, _18
 # src\main.cpp:560: 				D2D1_RECT_F rect = D2D1::RectF( static_cast<float>(i * cellWidth), static_cast<float>(j * cellHeight), static_cast<float>((i + 1) * cellWidth), static_cast<float>((j + 1) * cellHeight) );
	.loc 14 560 93
	movl	-4(%rbp), %eax	 # j, tmp201
	imull	72(%rbp), %eax	 # cellHeight, _19
 # src\main.cpp:560: 				D2D1_RECT_F rect = D2D1::RectF( static_cast<float>(i * cellWidth), static_cast<float>(j * cellHeight), static_cast<float>((i + 1) * cellWidth), static_cast<float>((j + 1) * cellHeight) );
	.loc 14 560 35
	pxor	%xmm2, %xmm2	 # _20
	cvtsi2ssl	%eax, %xmm2	 # _19, _20
 # src\main.cpp:560: 				D2D1_RECT_F rect = D2D1::RectF( static_cast<float>(i * cellWidth), static_cast<float>(j * cellHeight), static_cast<float>((i + 1) * cellWidth), static_cast<float>((j + 1) * cellHeight) );
	.loc 14 560 58
	movl	-8(%rbp), %eax	 # i, tmp202
	imull	64(%rbp), %eax	 # cellWidth, _21
 # src\main.cpp:560: 				D2D1_RECT_F rect = D2D1::RectF( static_cast<float>(i * cellWidth), static_cast<float>(j * cellHeight), static_cast<float>((i + 1) * cellWidth), static_cast<float>((j + 1) * cellHeight) );
	.loc 14 560 35
	pxor	%xmm3, %xmm3	 # _22
	cvtsi2ssl	%eax, %xmm3	 # _21, _22
	movss	%xmm3, -52(%rbp)	 # _22, left
	movss	%xmm2, -56(%rbp)	 # _20, top
	movss	%xmm1, -60(%rbp)	 # _18, right
	movss	%xmm0, -64(%rbp)	 # _15, bottom
	movss	-52(%rbp), %xmm0	 # left, tmp203
	movss	%xmm0, -68(%rbp)	 # tmp203, left
	movss	-56(%rbp), %xmm0	 # top, tmp204
	movss	%xmm0, -72(%rbp)	 # tmp204, top
	movss	-60(%rbp), %xmm0	 # right, tmp205
	movss	%xmm0, -76(%rbp)	 # tmp205, right
	movss	-64(%rbp), %xmm0	 # bottom, tmp206
	movss	%xmm0, -80(%rbp)	 # tmp206, bottom
.LBB160:
.LBB161:
.LBB162:
.LBB163:
 # C:/msys64/mingw64/include/d2d1helper.h:58:     typename TypeTraits<T>::Rect r = {left, top, right, bottom};
	.loc 16 58 34
	movss	-68(%rbp), %xmm0	 # left, tmp207
	movss	%xmm0, -112(%rbp)	 # tmp207, rect.left
	movss	-72(%rbp), %xmm0	 # top, tmp208
	movss	%xmm0, -108(%rbp)	 # tmp208, rect.top
	movss	-76(%rbp), %xmm0	 # right, tmp209
	movss	%xmm0, -104(%rbp)	 # tmp209, rect.right
	movss	-80(%rbp), %xmm0	 # bottom, tmp210
	movss	%xmm0, -100(%rbp)	 # tmp210, rect.bottom
 # C:/msys64/mingw64/include/d2d1helper.h:59:     return r;
	.loc 16 59 12
	nop	
.LBE163:
.LBE162:
 # C:/msys64/mingw64/include/d2d1helper.h:63:     return Rect<FLOAT>(left, top, right, bottom);
	.loc 16 63 48
	nop	
.LBE161:
.LBE160:
 # src\main.cpp:561:     			BitmapRT->FillRectangle(&rect, brushPool[static_cast<uint32_t>(matrix->CELL_FRONT_BUFFER[matrix->FlattenedIndex(i, j, matrix->_zLevel)].MaterialType)]);
	.loc 14 561 31
	movq	BitmapRT(%rip), %rax	 # BitmapRT, BitmapRT.7_25
	movq	(%rax), %rax	 # BitmapRT.7_25->D.201369.D.200640.D.199868._vptr.IUnknown, _26
	addq	$136, %rax	 #, _27
	movq	(%rax), %rbx	 # *_27, _28
	movq	BitmapRT(%rip), %rax	 # BitmapRT, BitmapRT.8_29
	movq	%rax, %r12	 # BitmapRT.8_29, _30
 # src\main.cpp:561:     			BitmapRT->FillRectangle(&rect, brushPool[static_cast<uint32_t>(matrix->CELL_FRONT_BUFFER[matrix->FlattenedIndex(i, j, matrix->_zLevel)].MaterialType)]);
	.loc 14 561 39
	movq	brushPool(%rip), %rsi	 # brushPool, brushPool.9_98
 # src\main.cpp:561:     			BitmapRT->FillRectangle(&rect, brushPool[static_cast<uint32_t>(matrix->CELL_FRONT_BUFFER[matrix->FlattenedIndex(i, j, matrix->_zLevel)].MaterialType)]);
	.loc 14 561 79
	movq	-16(%rbp), %rax	 # matrix, tmp211
	movq	8(%rax), %rdi	 # matrix_82->CELL_FRONT_BUFFER, _99
 # src\main.cpp:561:     			BitmapRT->FillRectangle(&rect, brushPool[static_cast<uint32_t>(matrix->CELL_FRONT_BUFFER[matrix->FlattenedIndex(i, j, matrix->_zLevel)].MaterialType)]);
	.loc 14 561 134
	movq	-16(%rbp), %rax	 # matrix, tmp212
	movzwl	56(%rax), %eax	 # matrix_82->_zLevel, _31
 # src\main.cpp:561:     			BitmapRT->FillRectangle(&rect, brushPool[static_cast<uint32_t>(matrix->CELL_FRONT_BUFFER[matrix->FlattenedIndex(i, j, matrix->_zLevel)].MaterialType)]);
	.loc 14 561 119
	movzwl	%ax, %r8d	 # _31, _32
	movl	-4(%rbp), %ecx	 # j, j.10_33
	movl	-8(%rbp), %edx	 # i, i.11_34
	movq	-16(%rbp), %rax	 # matrix, tmp213
	movl	%r8d, %r9d	 # _32,
	movl	%ecx, %r8d	 # j.10_33,
	movq	%rax, %rcx	 # tmp213,
	call	_ZN6MATRIX14FlattenedIndexEjjj	 #
	movl	%eax, %eax	 # _35, _36
 # src\main.cpp:561:     			BitmapRT->FillRectangle(&rect, brushPool[static_cast<uint32_t>(matrix->CELL_FRONT_BUFFER[matrix->FlattenedIndex(i, j, matrix->_zLevel)].MaterialType)]);
	.loc 14 561 142
	salq	$5, %rax	 #, _37
	addq	%rdi, %rax	 # _99, _38
 # src\main.cpp:561:     			BitmapRT->FillRectangle(&rect, brushPool[static_cast<uint32_t>(matrix->CELL_FRONT_BUFFER[matrix->FlattenedIndex(i, j, matrix->_zLevel)].MaterialType)]);
	.loc 14 561 144
	movl	28(%rax), %eax	 # _38->MaterialType, _39
 # src\main.cpp:561:     			BitmapRT->FillRectangle(&rect, brushPool[static_cast<uint32_t>(matrix->CELL_FRONT_BUFFER[matrix->FlattenedIndex(i, j, matrix->_zLevel)].MaterialType)]);
	.loc 14 561 49
	movl	%eax, %eax	 # _39, _40
 # src\main.cpp:561:     			BitmapRT->FillRectangle(&rect, brushPool[static_cast<uint32_t>(matrix->CELL_FRONT_BUFFER[matrix->FlattenedIndex(i, j, matrix->_zLevel)].MaterialType)]);
	.loc 14 561 157
	salq	$3, %rax	 #, _41
	addq	%rsi, %rax	 # brushPool.9_98, _42
 # src\main.cpp:561:     			BitmapRT->FillRectangle(&rect, brushPool[static_cast<uint32_t>(matrix->CELL_FRONT_BUFFER[matrix->FlattenedIndex(i, j, matrix->_zLevel)].MaterialType)]);
	.loc 14 561 31
	movq	(%rax), %rdx	 # *_42, _43
	leaq	-112(%rbp), %rax	 #, tmp214
	movq	%rdx, %r8	 # _43,
	movq	%rax, %rdx	 # tmp214,
	movq	%r12, %rcx	 # _30,
	call	*%rbx	 # _28
.LVL12:
.LBE159:
 # src\main.cpp:558:     		for (int i = 0; i < matrix->w; ++i)
	.loc 14 558 7
	addl	$1, -8(%rbp)	 #, i
.L292:
 # src\main.cpp:558:     		for (int i = 0; i < matrix->w; ++i)
	.loc 14 558 35 discriminator 1
	movq	-16(%rbp), %rax	 # matrix, tmp215
	movl	40(%rax), %eax	 # matrix_82->w, _44
 # src\main.cpp:558:     		for (int i = 0; i < matrix->w; ++i)
	.loc 14 558 23 discriminator 1
	movl	-8(%rbp), %edx	 # i, i.12_45
 # src\main.cpp:558:     		for (int i = 0; i < matrix->w; ++i)
	.loc 14 558 25 discriminator 1
	cmpl	%eax, %edx	 # _44, i.12_45
	jb	.L295	 #,
.LBE158:
.LBE157:
 # src\main.cpp:556: 		for (int j = 0; j < matrix->h; ++j)
	.loc 14 556 3 discriminator 2
	addl	$1, -4(%rbp)	 #, j
.L291:
 # src\main.cpp:556: 		for (int j = 0; j < matrix->h; ++j)
	.loc 14 556 31 discriminator 1
	movq	-16(%rbp), %rax	 # matrix, tmp216
	movl	44(%rax), %eax	 # matrix_82->h, _46
 # src\main.cpp:556: 		for (int j = 0; j < matrix->h; ++j)
	.loc 14 556 19 discriminator 1
	movl	-4(%rbp), %edx	 # j, j.13_47
 # src\main.cpp:556: 		for (int j = 0; j < matrix->h; ++j)
	.loc 14 556 21 discriminator 1
	cmpl	%eax, %edx	 # _46, j.13_47
	jb	.L296	 #,
.LBE156:
 # src\main.cpp:564: 		BitmapRT->EndDraw();
	.loc 14 564 20
	movq	BitmapRT(%rip), %rax	 # BitmapRT, BitmapRT.15_50
	movq	(%rax), %rax	 # BitmapRT.15_50->D.201369.D.200640.D.199868._vptr.IUnknown, _51
	addq	$392, %rax	 #, _52
	movq	(%rax), %rax	 # *_52, _53
	movq	BitmapRT(%rip), %rdx	 # BitmapRT, BitmapRT.16_54
	movq	%rdx, %rcx	 # BitmapRT.16_54, _55
	movl	$0, %r8d	 #,
	movl	$0, %edx	 #,
	call	*%rax	 # _53
.LVL13:
 # src\main.cpp:565: 		if(Bitmap) { Bitmap->Release(); Bitmap = nullptr; }
	.loc 14 565 6
	movq	Bitmap(%rip), %rax	 # Bitmap, Bitmap.17_56
 # src\main.cpp:565: 		if(Bitmap) { Bitmap->Release(); Bitmap = nullptr; }
	.loc 14 565 3
	testq	%rax, %rax	 # Bitmap.17_56
	je	.L297	 #,
 # src\main.cpp:565: 		if(Bitmap) { Bitmap->Release(); Bitmap = nullptr; }
	.loc 14 565 31 discriminator 1
	movq	Bitmap(%rip), %rax	 # Bitmap, Bitmap.19_59
	movq	(%rax), %rax	 # Bitmap.19_59->D.199978.D.199927.D.199868._vptr.IUnknown, _60
	addq	$16, %rax	 #, _61
	movq	(%rax), %rax	 # *_61, _62
	movq	Bitmap(%rip), %rdx	 # Bitmap, Bitmap.20_63
	movq	%rdx, %rcx	 # _64,
	call	*%rax	 # _62
.LVL14:
 # src\main.cpp:565: 		if(Bitmap) { Bitmap->Release(); Bitmap = nullptr; }
	.loc 14 565 42 discriminator 1
	movq	$0, Bitmap(%rip)	 #, Bitmap
.L297:
 # src\main.cpp:566: 		HRESULT hr = BitmapRT->GetBitmap(&Bitmap);
	.loc 14 566 35
	movq	BitmapRT(%rip), %rax	 # BitmapRT, BitmapRT.22_66
	movq	(%rax), %rax	 # BitmapRT.22_66->D.201369.D.200640.D.199868._vptr.IUnknown, _67
	addq	$456, %rax	 #, _68
	movq	(%rax), %r8	 # *_68, _69
	movq	BitmapRT(%rip), %rax	 # BitmapRT, BitmapRT.23_70
	leaq	Bitmap(%rip), %rdx	 #, tmp217
	movq	%rax, %rcx	 # BitmapRT.23_70,
	call	*%r8	 # _69
.LVL15:
	movl	%eax, -20(%rbp)	 # _91, hr
 # src\main.cpp:567: 		ErrorHandle(hr);
	.loc 14 567 14
	movl	-20(%rbp), %eax	 # hr, tmp218
	movl	%eax, %ecx	 # tmp218,
	call	_ZN21WINDOWGraphicsOverlay11ErrorHandleEl	 #
.L282:
 # src\main.cpp:568: 	}
	.loc 14 568 2
	addq	$144, %rsp	 #,
	popq	%rbx	 #
.LCFI326:
	popq	%rsi	 #
.LCFI327:
	popq	%rdi	 #
.LCFI328:
	popq	%r12	 #
.LCFI329:
	popq	%rbp	 #
.LCFI330:
	ret	
.LFE10944:
	.seh_endproc
	.section	.text$_ZN6MATRIXD1Ev,"x"
	.linkonce discard
	.align 2
	.globl	_ZN6MATRIXD1Ev
	.def	_ZN6MATRIXD1Ev;	.scl	2;	.type	32;	.endef
	.seh_proc	_ZN6MATRIXD1Ev
_ZN6MATRIXD1Ev:
.LFB10948:
	.loc 14 74 8
	pushq	%rbp	 #
	.seh_pushreg	%rbp
.LCFI331:
	movq	%rsp, %rbp	 #,
	.seh_setframe	%rbp, 0
.LCFI332:
	subq	$32, %rsp	 #,
	.seh_stackalloc	32
	.seh_endprologue
	movq	%rcx, 16(%rbp)	 # this, this
.LBB164:
 # src\main.cpp:74: struct MATRIX
	.loc 14 74 8
	movq	16(%rbp), %rax	 # this, tmp83
	addq	$32, %rax	 #, _1
	movq	%rax, %rcx	 # _1,
	call	_ZNSt10unique_ptrIA_N6MATRIX18MaterialAttributesESt14default_deleteIS2_EED1Ev	 #
.LBE164:
	nop	
	addq	$32, %rsp	 #,
	popq	%rbp	 #
.LCFI333:
	ret	
.LFE10948:
	.seh_endproc
	.section	.text$_ZN6MATRIX4cellC1Ev,"x"
	.linkonce discard
	.align 2
	.globl	_ZN6MATRIX4cellC1Ev
	.def	_ZN6MATRIX4cellC1Ev;	.scl	2;	.type	32;	.endef
	.seh_proc	_ZN6MATRIX4cellC1Ev
_ZN6MATRIX4cellC1Ev:
.LFB10951:
	.loc 14 93 3
	pushq	%rbp	 #
	.seh_pushreg	%rbp
.LCFI334:
	movq	%rsp, %rbp	 #,
	.seh_setframe	%rbp, 0
.LCFI335:
	subq	$32, %rsp	 #,
	.seh_stackalloc	32
	.seh_endprologue
	movq	%rcx, 16(%rbp)	 # this, this
.LBB165:
 # src\main.cpp:93: 		cell() = default;
	.loc 14 93 3
	movq	16(%rbp), %rax	 # this, tmp83
	pxor	%xmm0, %xmm0	 # tmp84
	movss	%xmm0, (%rax)	 # tmp84, this_3(D)->temperature
	movq	16(%rbp), %rax	 # this, tmp85
	addq	$4, %rax	 #, _1
	pxor	%xmm3, %xmm3	 #
	pxor	%xmm2, %xmm2	 #
	pxor	%xmm1, %xmm1	 #
	movq	%rax, %rcx	 # _1,
	call	_ZN5Vec3DC1Efff	 #
	movq	16(%rbp), %rax	 # this, tmp86
	pxor	%xmm0, %xmm0	 # tmp87
	movsd	%xmm0, 16(%rax)	 # tmp87, this_3(D)->pressure
	movq	16(%rbp), %rax	 # this, tmp88
	movb	$0, 24(%rax)	 #, this_3(D)->active
.LBE165:
	nop	
	addq	$32, %rsp	 #,
	popq	%rbp	 #
.LCFI336:
	ret	
.LFE10951:
	.seh_endproc
	.section .rdata,"dr"
	.align 8
.LC43:
	.ascii "RenderTarget->CreateCompatibleRenderTarget(&BitmapRT); RENDERTARGET = nullptr\0"
	.align 8
.LC44:
	.ascii "WM_SIZE: RENDERTARGET = nullptr\0"
	.align 8
.LC45:
	.ascii "cell[%d, %d][SLICE: %d]->element: %s\12\0"
	.align 8
.LC48:
	.ascii "WM_PAINT: RENDERTARGET = nullptr\12\0"
	.text
	.globl	_ZN21WINDOWGraphicsOverlay10WindowProcEP6HWND__jyx
	.def	_ZN21WINDOWGraphicsOverlay10WindowProcEP6HWND__jyx;	.scl	2;	.type	32;	.endef
	.seh_proc	_ZN21WINDOWGraphicsOverlay10WindowProcEP6HWND__jyx
_ZN21WINDOWGraphicsOverlay10WindowProcEP6HWND__jyx:
.LFB10945:
	.loc 14 571 2
	pushq	%rbp	 #
	.seh_pushreg	%rbp
.LCFI337:
	pushq	%rbx	 #
	.seh_pushreg	%rbx
.LCFI338:
	subq	$1688, %rsp	 #,
	.seh_stackalloc	1688
.LCFI339:
	leaq	128(%rsp), %rbp	 #,
	.seh_setframe	%rbp, 128
.LCFI340:
	.seh_endprologue
	movq	%rcx, 1584(%rbp)	 # hwnd, hwnd
	movl	%edx, 1592(%rbp)	 # msg, msg
	movq	%r8, 1600(%rbp)	 # wp, wp
	movq	%r9, 1608(%rbp)	 # lp, lp
.LBB166:
 # src\main.cpp:572: 		if (msg == WM_NCCREATE)
	.loc 14 572 3
	cmpl	$129, 1592(%rbp)	 #, msg
	jne	.L301	 #,
.LBB167:
 # src\main.cpp:574:     	    CREATESTRUCT* pcs = reinterpret_cast<CREATESTRUCT*>(lp);
	.loc 14 574 24
	movq	1608(%rbp), %rax	 # lp, tmp218
	movq	%rax, 1472(%rbp)	 # tmp218, pcs
 # src\main.cpp:575:     	    MATRIX* matrix = static_cast<MATRIX*>(pcs->lpCreateParams);
	.loc 14 575 18
	movq	1472(%rbp), %rax	 # pcs, tmp219
	movq	(%rax), %rax	 # pcs_291->lpCreateParams, tmp220
	movq	%rax, 1464(%rbp)	 # tmp220, matrix
 # src\main.cpp:576:     	   	SetWindowLongPtr(hwnd, GWLP_USERDATA, reinterpret_cast<LONG_PTR>(matrix));
	.loc 14 576 26
	movq	1464(%rbp), %rdx	 # matrix, matrix.29_1
	movq	1584(%rbp), %rax	 # hwnd, tmp221
	movq	%rdx, %r8	 # matrix.29_1,
	movl	$-21, %edx	 #,
	movq	%rax, %rcx	 # tmp221,
	movq	__imp_SetWindowLongPtrW(%rip), %rax	 #, tmp222
.LEHB6:
	call	*%rax	 # tmp222
.LVL16:
 # src\main.cpp:578: 			return 1;
	.loc 14 578 11
	movl	$1, %eax	 #, _123
	jmp	.L348	 #
.L301:
.LBE167:
.LBE166:
.LBB168:
 # src\main.cpp:581: 		if(msg == WM_NCDESTROY)
	.loc 14 581 3
	cmpl	$130, 1592(%rbp)	 #, msg
	jne	.L303	 #,
.LBB169:
 # src\main.cpp:583: 			MATRIX* matrix = reinterpret_cast<MATRIX*>(GetWindowLongPtr(hwnd, GWLP_USERDATA));
	.loc 14 583 63
	movq	1584(%rbp), %rax	 # hwnd, tmp223
	movl	$-21, %edx	 #,
	movq	%rax, %rcx	 # tmp223,
	movq	__imp_GetWindowLongPtrW(%rip), %rax	 #, tmp224
	call	*%rax	 # tmp224
.LVL17:
 # src\main.cpp:583: 			MATRIX* matrix = reinterpret_cast<MATRIX*>(GetWindowLongPtr(hwnd, GWLP_USERDATA));
	.loc 14 583 84
	movq	%rax, 1536(%rbp)	 # _2, matrix
 # src\main.cpp:584: 			delete matrix;
	.loc 14 584 11
	movq	1536(%rbp), %rbx	 # matrix, matrix.30_156
 # src\main.cpp:584: 			delete matrix;
	.loc 14 584 4
	testq	%rbx, %rbx	 # matrix.30_156
	je	.L304	 #,
 # src\main.cpp:584: 			delete matrix;
	.loc 14 584 11 discriminator 1
	movq	%rbx, %rcx	 # matrix.30_156,
	call	_ZN6MATRIXD1Ev	 #
	movl	$64, %edx	 #,
	movq	%rbx, %rcx	 # matrix.30_156,
	call	_ZdlPvy	 #
.L304:
 # src\main.cpp:585: 			matrix=nullptr;
	.loc 14 585 10
	movq	$0, 1536(%rbp)	 #, matrix
 # src\main.cpp:586: 			SetWindowLongPtr(hwnd, GWLP_USERDATA, 0);
	.loc 14 586 20
	movq	1584(%rbp), %rax	 # hwnd, tmp225
	movl	$0, %r8d	 #,
	movl	$-21, %edx	 #,
	movq	%rax, %rcx	 # tmp225,
	movq	__imp_SetWindowLongPtrW(%rip), %rax	 #, tmp226
	call	*%rax	 # tmp226
.LVL18:
 # src\main.cpp:588: 			if(RenderTarget){RenderTarget->Release();}
	.loc 14 588 7
	movq	RenderTarget(%rip), %rax	 # RenderTarget, RenderTarget.31_3
 # src\main.cpp:588: 			if(RenderTarget){RenderTarget->Release();}
	.loc 14 588 4
	testq	%rax, %rax	 # RenderTarget.31_3
	je	.L305	 #,
 # src\main.cpp:588: 			if(RenderTarget){RenderTarget->Release();}
	.loc 14 588 42 discriminator 1
	movq	RenderTarget(%rip), %rax	 # RenderTarget, RenderTarget.33_6
	movq	(%rax), %rax	 # RenderTarget.33_6->D.201843.D.200640.D.199868._vptr.IUnknown, _7
	addq	$16, %rax	 #, _8
	movq	(%rax), %rax	 # *_8, _9
	movq	RenderTarget(%rip), %rdx	 # RenderTarget, RenderTarget.34_10
	movq	%rdx, %rcx	 # _11,
	call	*%rax	 # _9
.LVL19:
.L305:
 # src\main.cpp:589: 			if(Factory)     {Factory->Release();     }
	.loc 14 589 7
	movq	Factory(%rip), %rax	 # Factory, Factory.35_12
 # src\main.cpp:589: 			if(Factory)     {Factory->Release();     }
	.loc 14 589 4
	testq	%rax, %rax	 # Factory.35_12
	je	.L306	 #,
 # src\main.cpp:589: 			if(Factory)     {Factory->Release();     }
	.loc 14 589 37 discriminator 1
	movq	Factory(%rip), %rax	 # Factory, Factory.37_15
	movq	(%rax), %rax	 # Factory.37_15->D.201619._vptr.IUnknown, _16
	addq	$16, %rax	 #, _17
	movq	(%rax), %rax	 # *_17, _18
	movq	Factory(%rip), %rdx	 # Factory, Factory.38_19
	movq	%rdx, %rcx	 # _20,
	call	*%rax	 # _18
.LVL20:
.L306:
.LBB170:
 # src\main.cpp:591: 			for(uint32_t i=0; i<=static_cast<uint32_t>(MATRIX::element::size) -1; ++i)
	.loc 14 591 17
	movl	$0, 1548(%rbp)	 #, i
 # src\main.cpp:591: 			for(uint32_t i=0; i<=static_cast<uint32_t>(MATRIX::element::size) -1; ++i)
	.loc 14 591 4
	jmp	.L307	 #
.L309:
 # src\main.cpp:593: 				if(brushPool[i])
	.loc 14 593 19
	movq	brushPool(%rip), %rax	 # brushPool, brushPool.39_21
 # src\main.cpp:593: 				if(brushPool[i])
	.loc 14 593 18
	movl	1548(%rbp), %edx	 # i, _22
 # src\main.cpp:593: 				if(brushPool[i])
	.loc 14 593 19
	salq	$3, %rdx	 #, _23
	addq	%rdx, %rax	 # _23, _24
	movq	(%rax), %rax	 # *_24, _25
 # src\main.cpp:593: 				if(brushPool[i])
	.loc 14 593 5
	testq	%rax, %rax	 # _25
	je	.L308	 #,
 # src\main.cpp:595: 					brushPool[i]->Release();
	.loc 14 595 17
	movq	brushPool(%rip), %rax	 # brushPool, brushPool.41_32
 # src\main.cpp:595: 					brushPool[i]->Release();
	.loc 14 595 16
	movl	1548(%rbp), %edx	 # i, _33
 # src\main.cpp:595: 					brushPool[i]->Release();
	.loc 14 595 17
	salq	$3, %rdx	 #, _34
	addq	%rdx, %rax	 # _34, _35
 # src\main.cpp:595: 					brushPool[i]->Release();
	.loc 14 595 27
	movq	(%rax), %rax	 # *_35, _36
	movq	(%rax), %rax	 # _36->D.202031.D.199894.D.199868._vptr.IUnknown, _37
	addq	$16, %rax	 #, _38
	movq	(%rax), %rax	 # *_38, _39
 # src\main.cpp:595: 					brushPool[i]->Release();
	.loc 14 595 17
	movq	brushPool(%rip), %rdx	 # brushPool, brushPool.42_40
 # src\main.cpp:595: 					brushPool[i]->Release();
	.loc 14 595 16
	movl	1548(%rbp), %ecx	 # i, _41
 # src\main.cpp:595: 					brushPool[i]->Release();
	.loc 14 595 17
	salq	$3, %rcx	 #, _42
	addq	%rcx, %rdx	 # _42, _43
 # src\main.cpp:595: 					brushPool[i]->Release();
	.loc 14 595 27
	movq	(%rdx), %rdx	 # *_43, _44
	movq	%rdx, %rcx	 # _45,
	call	*%rax	 # _39
.LVL21:
 # src\main.cpp:596: 					brushPool[i] = nullptr;
	.loc 14 596 17
	movq	brushPool(%rip), %rax	 # brushPool, brushPool.43_46
 # src\main.cpp:596: 					brushPool[i] = nullptr;
	.loc 14 596 16
	movl	1548(%rbp), %edx	 # i, _47
 # src\main.cpp:596: 					brushPool[i] = nullptr;
	.loc 14 596 17
	salq	$3, %rdx	 #, _48
	addq	%rdx, %rax	 # _48, _49
 # src\main.cpp:596: 					brushPool[i] = nullptr;
	.loc 14 596 19
	movq	$0, (%rax)	 #, *_49
.L308:
 # src\main.cpp:599: 				free(memory);
	.loc 14 599 9 discriminator 2
	movq	memory(%rip), %rax	 # memory, memory.44_50
	movq	%rax, %rcx	 # memory.44_50,
	call	free	 #
 # src\main.cpp:600: 				memory = nullptr;
	.loc 14 600 12 discriminator 2
	movq	$0, memory(%rip)	 #, memory
 # src\main.cpp:591: 			for(uint32_t i=0; i<=static_cast<uint32_t>(MATRIX::element::size) -1; ++i)
	.loc 14 591 4 discriminator 2
	addl	$1, 1548(%rbp)	 #, i
.L307:
 # src\main.cpp:591: 			for(uint32_t i=0; i<=static_cast<uint32_t>(MATRIX::element::size) -1; ++i)
	.loc 14 591 23 discriminator 1
	cmpl	$5, 1548(%rbp)	 #, i
	jbe	.L309	 #,
.L303:
.LBE170:
.LBE169:
.LBE168:
.LBB171:
 # src\main.cpp:604: 		switch(msg)
	.loc 14 604 3
	cmpl	$512, 1592(%rbp)	 #, msg
	je	.L310	 #,
	cmpl	$512, 1592(%rbp)	 #, msg
	ja	.L311	 #,
	cmpl	$256, 1592(%rbp)	 #, msg
	je	.L312	 #,
	cmpl	$256, 1592(%rbp)	 #, msg
	ja	.L311	 #,
	cmpl	$15, 1592(%rbp)	 #, msg
	je	.L313	 #,
	cmpl	$15, 1592(%rbp)	 #, msg
	ja	.L311	 #,
	cmpl	$5, 1592(%rbp)	 #, msg
	je	.L314	 #,
	cmpl	$5, 1592(%rbp)	 #, msg
	ja	.L311	 #,
	cmpl	$1, 1592(%rbp)	 #, msg
	je	.L315	 #,
	cmpl	$2, 1592(%rbp)	 #, msg
	je	.L316	 #,
	jmp	.L311	 #
.L315:
.LBB172:
.LBB173:
 # src\main.cpp:608: 				HRESULT hr = D2D1CreateFactory(D2D1_FACTORY_TYPE_SINGLE_THREADED, &Factory);
	.loc 14 608 35
	leaq	Factory(%rip), %rax	 #, tmp227
	movq	%rax, %rdx	 # tmp227,
	movl	$0, %ecx	 #,
	call	_Z17D2D1CreateFactoryI12ID2D1FactoryEl17D2D1_FACTORY_TYPEPPT_	 #
	movl	%eax, 1544(%rbp)	 # _259, hr
.LBB174:
 # src\main.cpp:609: 				if(FAILED(hr))
	.loc 14 609 5
	cmpl	$0, 1544(%rbp)	 #, hr
	jns	.L317	 #,
.LBB175:
 # src\main.cpp:612:         			swprintf_s(errorMsg, L"D2D1CreateFactory failed with HRESULT: 0x%08X", hr);
	.loc 14 612 22
	movl	1544(%rbp), %edx	 # hr, tmp228
	leaq	-80(%rbp), %rax	 #, tmp229
	movl	%edx, %r8d	 # tmp228,
	leaq	.LC37(%rip), %rdx	 #, tmp230
	movq	%rax, %rcx	 # tmp229,
	call	_Z10swprintf_sILy512EEiRAT__wPKwz	 #
 # src\main.cpp:613:         			MessageBoxW(0, errorMsg, L"Error", MB_ICONERROR);
	.loc 14 613 23
	leaq	-80(%rbp), %rax	 #, tmp231
	movl	$16, %r9d	 #,
	leaq	.LC38(%rip), %r8	 #,
	movq	%rax, %rdx	 # tmp231,
	movl	$0, %ecx	 #,
	movq	__imp_MessageBoxW(%rip), %rax	 #, tmp232
	call	*%rax	 # tmp232
.LVL22:
.L317:
.LBE175:
.LBE174:
 # src\main.cpp:616: 				FLOAT dpiX = 96.0f;
	.loc 14 616 11
	movss	.LC42(%rip), %xmm0	 #, tmp233
	movss	%xmm0, 1484(%rbp)	 # tmp233, dpiX
 # src\main.cpp:617: 				FLOAT dpiY = 96.0f;
	.loc 14 617 11
	movss	.LC42(%rip), %xmm0	 #, tmp234
	movss	%xmm0, 1480(%rbp)	 # tmp234, dpiY
 # src\main.cpp:621: 				GetClientRect(hwnd, &rc);
	.loc 14 621 18
	leaq	1056(%rbp), %rdx	 #, tmp235
	movq	1584(%rbp), %rax	 # hwnd, tmp236
	movq	%rax, %rcx	 # tmp236,
	movq	__imp_GetClientRect(%rip), %rax	 #, tmp237
	call	*%rax	 # tmp237
.LVL23:
 # src\main.cpp:623: 				D2D1_SIZE_U size = D2D1::SizeU(rc.right - rc.left, rc.bottom - rc.top);
	.loc 14 623 59
	movl	1068(%rbp), %edx	 # rc.bottom, _51
 # src\main.cpp:623: 				D2D1_SIZE_U size = D2D1::SizeU(rc.right - rc.left, rc.bottom - rc.top);
	.loc 14 623 71
	movl	1060(%rbp), %eax	 # rc.top, _52
 # src\main.cpp:623: 				D2D1_SIZE_U size = D2D1::SizeU(rc.right - rc.left, rc.bottom - rc.top);
	.loc 14 623 66
	subl	%eax, %edx	 # _52, _53
